ASxxxx Linker V03.00 + NoICE + sdld,  page 1.
Hexadecimal  [32-Bits]

Area                                    Addr        Size        Decimal Bytes (Attributes)
--------------------------------        ----        ----        ------- ----- ------------
.  .ABS.                            00000000    00000000 =           0. bytes (ABS,CON)

      Value  Global                              Global Defined In Module
      -----  --------------------------------   ------------------------
     00000000  .__.ABS.                           
     00000000  _rRAMG                             
     00000000  l__BASE                         
     00000000  l__BSS                          
     00000000  l__CABS                         
     00000000  l__CODE_0                       
     00000000  l__CRASH_HEADER                 
     00000000  l__CRASH_SCRATCH                
     00000000  l__DABS                         
     00000000  l__HEADER                       
     00000000  l__HEADER_LCD                   
     00000000  l__HEADER_SIO                   
     00000000  l__HEADER_TIMER                 
     00000000  l__HEAP                         
     00000000  l__HRAM                         
     00000000  l__LIT                          
     00000000  s__CABS                         
     00000000  s__CRASH_HEADER                 
     00000000  s__CRASH_HEADER0                
     00000000  s__CRASH_HEADER1                
     00000000  s__CRASH_SCRATCH                
     00000000  s__CRASH_SCRATCH2               
     00000000  s__DABS                         
     00000000  s__HEADER                       
     00000000  s__HEADER0                      
     00000000  s__HEADER1                      
     00000000  s__HEADER10                     
     00000000  s__HEADER11                     
     00000000  s__HEADER2                      
     00000000  s__HEADER3                      
     00000000  s__HEADER4                      
     00000000  s__HEADER5                      
     00000000  s__HEADER6                      
     00000000  s__HEADER7                      
     00000000  s__HEADER8                      
     00000000  s__HEADER9                      
     00000000  s__HEADER_LCD                   
     00000000  s__HEADER_LCD0                  
     00000000  s__HEADER_SIO                   
     00000000  s__HEADER_SIO0                  
     00000000  s__HEADER_TIMER                 
     00000000  s__HEADER_TIMER0                
     00000000  s__HEADERa                      
     00000000  s__HEADERb                      
     00000000  s__HEADERc                      
     00000000  s__HEADERd                      
     00000000  s__HEADERe                      
     00000000  s__HEADERf                      
     00000000  s__HRAM                         
     00000000  s__HRAM12                       
ASxxxx Linker V03.00 + NoICE + sdld,  page 2.
Hexadecimal  [32-Bits]

Area                                    Addr        Size        Decimal Bytes (Attributes)
--------------------------------        ----        ----        ------- ----- ------------
.  .ABS.                            00000000    00000000 =           0. bytes (ABS,CON)

      Value  Global                              Global Defined In Module
      -----  --------------------------------   ------------------------
     00000001  b_activate_actor                   actor
     00000001  b_activate_actors_in_col           actor
     00000001  b_activate_actors_in_row           actor
     00000001  b_actor_at_tile                    actor
     00000001  b_actor_get_frame_offset           actor
     00000001  b_actor_in_front_of_player         actor
     00000001  b_actor_overlapping_bb             actor
     00000001  b_actor_overlapping_player         actor
     00000001  b_actor_set_anim_idle              actor
     00000001  b_actor_set_anim_moving            actor
     00000001  b_actor_set_dir                    actor
     00000001  b_actor_set_frame_offset           actor
     00000001  b_actor_set_frames                 actor
     00000001  b_actors_handle_player_collision   actor
     00000001  b_actors_init                      actor
     00000001  b_camera_init                      camera
     00000001  b_camera_reset                     camera
     00000001  b_check_collision_in_direction     actor
     00000001  b_deactivate_actor                 actor
     00000001  b_parallax_init                    parallax
     00000001  b_player_init                      actor
     00000001  b_remove_LCD_ISRs                  interrupts
     00000001  b_scroll_init                      scroll
     00000001  b_scroll_repaint                   scroll
     00000001  b_scroll_reset                     scroll
     00000001  b_scroll_update                    scroll
     00000001  b_ui_draw_frame                    ui
     00000001  b_ui_draw_text_buffer_char         ui
     00000001  b_ui_init                          ui
     00000001  b_ui_load_tiles                    ui
     00000001  b_ui_run_menu                      ui
     00000001  b_ui_run_modal                     ui
     00000001  l__GSFINAL                      
     00000001  l__HEADER0                      
     00000001  l__HEADER11                     
     00000001  l__HEADER9                      
     00000001  l__HEADERa                      
     00000001  l__HEADERb                      
     00000001  l__HEADERd                      
     00000001  l__HEADERe                      
     00000002  b_camera_shake_frames              vm_camera
     00000002  b_itoa_fmt                         vm_ui_a
     00000002  b_script_execute                   vm
     00000002  b_script_runner_init               vm
     00000002  b_script_terminate                 vm
     00000002  b_scroll_rect                      
     00000002  b_vm_actor_activate                vm_actor
     00000002  b_vm_actor_deactivate              vm_actor
     00000002  b_vm_actor_emote                   vm_actor
     00000002  b_vm_actor_get_angle               vm_actor
     00000002  b_vm_actor_get_anim_frame          vm_actor
ASxxxx Linker V03.00 + NoICE + sdld,  page 3.
Hexadecimal  [32-Bits]

Area                                    Addr        Size        Decimal Bytes (Attributes)
--------------------------------        ----        ----        ------- ----- ------------
.  .ABS.                            00000000    00000000 =           0. bytes (ABS,CON)

      Value  Global                              Global Defined In Module
      -----  --------------------------------   ------------------------
     00000002  b_vm_actor_get_dir                 vm_actor
     00000002  b_vm_actor_get_pos                 vm_actor
     00000002  b_vm_actor_move_to                 vm_actor
     00000002  b_vm_actor_replace_tile            vm_actor
     00000002  b_vm_actor_set_anim                vm_actor
     00000002  b_vm_actor_set_anim_frame          vm_actor
     00000002  b_vm_actor_set_anim_set            vm_actor
     00000002  b_vm_actor_set_anim_tick           vm_actor
     00000002  b_vm_actor_set_bounds              vm_actor
     00000002  b_vm_actor_set_coll_enabled        vm_actor
     00000002  b_vm_actor_set_dir                 vm_actor
     00000002  b_vm_actor_set_hidden              vm_actor
     00000002  b_vm_actor_set_move_speed          vm_actor
     00000002  b_vm_actor_set_pos                 vm_actor
     00000002  b_vm_actor_set_spritesheet         vm_actor
     00000002  b_vm_actor_set_spritesheet_by_re   vm_actor
     00000002  b_vm_actor_terminate_update        vm_actor
     00000002  b_vm_call                          vm
     00000002  b_vm_call_far                      vm
     00000002  b_vm_call_rel                      vm
     00000002  b_vm_camera_move_to                vm_camera
     00000002  b_vm_camera_set_pos                vm_camera
     00000002  b_vm_choice                        vm_ui
     00000002  b_vm_context_prepare               vm_gameboy
     00000002  b_vm_cos_scale                     vm_math
     00000002  b_vm_display_text                  vm_ui
     00000002  b_vm_fade_in                       vm_gameboy
     00000002  b_vm_fade_out                      vm_gameboy
     00000002  b_vm_get_indirect                  vm
     00000002  b_vm_get_int16                     vm
     00000002  b_vm_get_int8                      vm
     00000002  b_vm_get_tile_xy                   vm_gameboy
     00000002  b_vm_get_tlocal                    vm
     00000002  b_vm_get_uint8                     vm
     00000002  b_vm_hide_sprites                  vm_gameboy
     00000002  b_vm_idle                          vm
     00000002  b_vm_if                            vm
     00000002  b_vm_if_const                      vm
     00000002  b_vm_input_attach                  vm_gameboy
     00000002  b_vm_input_detach                  vm_gameboy
     00000002  b_vm_input_get                     vm_gameboy
     00000002  b_vm_input_wait                    vm_gameboy
     00000002  b_vm_invoke                        vm
     00000002  b_vm_join                          vm
     00000002  b_vm_jump                          vm
     00000002  b_vm_jump_rel                      vm
     00000002  b_vm_load_cursor                   vm_ui
     00000002  b_vm_load_frame                    vm_ui
     00000002  b_vm_load_palette                  vm_palette
     00000002  b_vm_lock                          vm
     00000002  b_vm_loop                          vm
ASxxxx Linker V03.00 + NoICE + sdld,  page 4.
Hexadecimal  [32-Bits]

Area                                    Addr        Size        Decimal Bytes (Attributes)
--------------------------------        ----        ----        ------- ----- ------------
.  .ABS.                            00000000    00000000 =           0. bytes (ABS,CON)

      Value  Global                              Global Defined In Module
      -----  --------------------------------   ------------------------
     00000002  b_vm_loop_rel                      vm
     00000002  b_vm_memcpy                        vm
     00000002  b_vm_memset                        vm
     00000002  b_vm_music_mute                    vm_music
     00000002  b_vm_music_play                    vm_music
     00000002  b_vm_music_routine                 vm_music
     00000002  b_vm_music_setpos                  vm_music
     00000002  b_vm_music_stop                    vm_music
     00000002  b_vm_overlay_clear                 vm_ui
     00000002  b_vm_overlay_hide                  vm_ui
     00000002  b_vm_overlay_move_to               vm_ui
     00000002  b_vm_overlay_scroll                vm_ui
     00000002  b_vm_overlay_set_scroll            vm_ui
     00000002  b_vm_overlay_set_submap            vm_ui
     00000002  b_vm_overlay_setpos                vm_ui
     00000002  b_vm_overlay_show                  vm_ui
     00000002  b_vm_overlay_wait                  vm_ui
     00000002  b_vm_poll                          vm_gameboy
     00000002  b_vm_poll_loaded                   vm
     00000002  b_vm_pop                           vm
     00000002  b_vm_projectile_launch             vm_projectiles
     00000002  b_vm_push                          vm
     00000002  b_vm_push_reference                vm
     00000002  b_vm_push_value                    vm
     00000002  b_vm_push_value_ind                vm
     00000002  b_vm_raise                         vm
     00000002  b_vm_rand                          vm
     00000002  b_vm_randomize                     vm
     00000002  b_vm_replace_tile                  vm_gameboy
     00000002  b_vm_replace_tile_xy               vm_gameboy
     00000002  b_vm_reserve                       vm
     00000002  b_vm_ret                           vm
     00000002  b_vm_ret_far                       vm
     00000002  b_vm_rtc_get                       vm_rtc
     00000002  b_vm_rtc_latch                     vm_rtc
     00000002  b_vm_rtc_set                       vm_rtc
     00000002  b_vm_rtc_start                     vm_rtc
     00000002  b_vm_rumble                        vm_gameboy
     00000002  b_vm_save_clear                    vm_load_save
     00000002  b_vm_save_peek                     vm_load_save
     00000002  b_vm_scene_pop                     vm_scene
     00000002  b_vm_scene_pop_all                 vm_scene
     00000002  b_vm_scene_push                    vm_scene
     00000002  b_vm_scene_stack_reset             vm_scene
     00000002  b_vm_set                           vm
     00000002  b_vm_set_const                     vm
     00000002  b_vm_set_const_int16               vm
     00000002  b_vm_set_const_int8                vm
     00000002  b_vm_set_font                      vm_ui
     00000002  b_vm_set_indirect                  vm
     00000002  b_vm_set_int16                     vm
ASxxxx Linker V03.00 + NoICE + sdld,  page 5.
Hexadecimal  [32-Bits]

Area                                    Addr        Size        Decimal Bytes (Attributes)
--------------------------------        ----        ----        ------- ----- ------------
.  .ABS.                            00000000    00000000 =           0. bytes (ABS,CON)

      Value  Global                              Global Defined In Module
      -----  --------------------------------   ------------------------
     00000002  b_vm_set_int8                      vm
     00000002  b_vm_set_print_dir                 vm_ui
     00000002  b_vm_set_sprite_mode               vm_gameboy
     00000002  b_vm_set_uint8                     vm
     00000002  b_vm_show_sprites                  vm_gameboy
     00000002  b_vm_sin_scale                     vm_math
     00000002  b_vm_sio_exchange                  vm_sio
     00000002  b_vm_sio_set_mode                  vm_sio
     00000002  b_vm_sound_mastervol               vm_music
     00000002  b_vm_sound_play                    vm_music
     00000002  b_vm_switch_text_layer             vm_ui
     00000002  b_vm_systime                       vm
     00000002  b_vm_terminate                     vm
     00000002  b_vm_test_terminate                vm
     00000002  b_vm_timer_prepare                 vm_gameboy
     00000002  b_vm_timer_reset                   vm_gameboy
     00000002  b_vm_timer_set                     vm_gameboy
     00000002  b_vm_timer_stop                    vm_gameboy
     00000002  b_vm_unlock                        vm
     00000002  b_vm_wave_play                     vm_music
     00000002  b_wait_frames                      vm
     00000002  l__HEADER5                      
     00000002  l__HEADERc                      
     00000002  l__HEADERf                      
     00000003  b_adventure_init                   adventure
     00000003  b_adventure_update                 adventure
     00000003  b_logo_init                        logo
     00000003  b_logo_update                      logo
     00000003  b_platform_init                    platform
     00000003  b_platform_update                  platform
     00000003  b_pointnclick_init                 pointnclick
     00000003  b_pointnclick_update               pointnclick
     00000003  b_shmup_init                       shmup
     00000003  b_shmup_update                     shmup
     00000003  b_topdown_init                     topdown
     00000003  b_topdown_update                   topdown
     00000003  l__HEADER8                      
     00000003  l__HEADER_LCD0                  
     00000003  l__HRAM12                       
     00000004  b_CGBZeroPalette                   palette
     00000004  b_SIO_init                         sio
     00000004  b_core_reset                       core
     00000004  b_core_run                         core
     00000004  b_data_clear                       load_save
     00000004  b_data_init                        load_save
     00000004  b_data_load                        load_save
     00000004  b_data_peek                        load_save
     00000004  b_data_save                        load_save
     00000004  b_do_load_palette                  data_manager
     00000004  b_events_init                      events
     00000004  b_fade_applypalettechange          fade_manager
ASxxxx Linker V03.00 + NoICE + sdld,  page 6.
Hexadecimal  [32-Bits]

Area                                    Addr        Size        Decimal Bytes (Attributes)
--------------------------------        ----        ----        ------- ----- ------------
.  .ABS.                            00000000    00000000 =           0. bytes (ABS,CON)

      Value  Global                              Global Defined In Module
      -----  --------------------------------   ------------------------
     00000004  b_fade_in                          fade_manager
     00000004  b_fade_in_modal                    fade_manager
     00000004  b_fade_init                        fade_manager
     00000004  b_fade_out                         fade_manager
     00000004  b_fade_out_modal                   fade_manager
     00000004  b_fade_setspeed                    fade_manager
     00000004  b_fade_update                      fade_manager
     00000004  b_input_init                       input
     00000004  b_load_background                  data_manager
     00000004  b_load_bkg_tileset                 data_manager
     00000004  b_load_bounds                      data_manager
     00000004  b_load_emote                       data_manager
     00000004  b_load_init                        data_manager
     00000004  b_load_player                      data_manager
     00000004  b_load_scene                       data_manager
     00000004  b_load_sprite                      data_manager
     00000004  b_music_events_poll                music_manager
     00000004  b_music_init                       music_manager
     00000004  b_music_stop                       music_manager
     00000004  b_palette_init                     palette
     00000004  b_projectile_launch                projectiles
     00000004  b_projectiles_init                 projectiles
     00000004  b_restore_sram                     flasher
     00000004  b_restore_sram_bank                flasher
     00000004  b_save_sram                        flasher
     00000004  b_set_sample                       sample_player
     00000004  b_set_sgb_border                   sgb_border
     00000004  b_sound_init                       music_manager
     00000004  b_sound_play                       music_manager
     00000004  b_timers_init                      events
     00000004  b_trigger_activate_at              trigger
     00000004  b_trigger_activate_at_intersecti   trigger
     00000004  b_trigger_at_intersection          trigger
     00000004  b_trigger_at_tile                  trigger
     00000004  b_trigger_interact                 trigger
     00000004  b_trigger_reset                    trigger
     00000004  b_wave_play                        music_manager
     00000004  l__CRASH_HEADER1                
     00000004  l__HEADER_SIO0                  
     00000004  l__HEADER_TIMER0                
     00000005  ___bank_scene_6_collisions         scene_6_collisions
     00000005  ___bank_script_s9a0_update         script_s9a0_update
     00000005  ___bank_spritesheet_none           spritesheet_none
     00000005  ___bank_tileset_0                  tileset_0
     00000005  ___bank_tileset_1                  tileset_1
     00000005  l__CRASH_HEADER0                
     00000005  l__HEADER1                      
     00000006  ___bank_font_0                     font_0
     00000006  ___bank_music_track_1__Data        music_track_1__Data
     00000006  ___bank_music_track_4__Data        music_track_4__Data
     00000006  ___bank_scene_17_actors            scene_17_actors
ASxxxx Linker V03.00 + NoICE + sdld,  page 7.
Hexadecimal  [32-Bits]

Area                                    Addr        Size        Decimal Bytes (Attributes)
--------------------------------        ----        ----        ------- ----- ------------
.  .ABS.                            00000000    00000000 =           0. bytes (ABS,CON)

      Value  Global                              Global Defined In Module
      -----  --------------------------------   ------------------------
     00000006  ___bank_script_sfx_melee_attack    script_sfx_melee_attack
     00000006  ___bank_tileset_2                  tileset_2
     00000006  ___bank_tileset_5                  tileset_5
     00000006  l__HEADER7                      
     00000007  ___bank_music_track_0__Data        music_track_0__Data
     00000007  ___bank_music_track_2__Data        music_track_2__Data
     00000007  ___bank_music_track_3__Data        music_track_3__Data
     00000007  ___bank_scene_10_collisions        scene_10_collisions
     00000007  ___bank_scene_25_collisions        scene_25_collisions
     00000007  ___bank_scene_30_collisions        scene_30_collisions
     00000007  ___bank_script_input_2             script_input_2
     00000007  ___bank_script_s13t0_interact      script_s13t0_interact
     00000007  ___bank_tilemap_15                 tilemap_15
     00000007  ___bank_tilemap_22                 tilemap_22
     00000007  ___bank_tilemap_3                  tilemap_3
     00000007  ___bank_tileset_13                 tileset_13
     00000007  ___bank_tileset_3                  tileset_3
     00000007  ___bank_tileset_4                  tileset_4
     00000007  l__HEADER2                      
     00000008  ___bank_scene_12_collisions        scene_12_collisions
     00000008  ___bank_scene_13_collisions        scene_13_collisions
     00000008  ___bank_scene_16_collisions        scene_16_collisions
     00000008  ___bank_scene_18_collisions        scene_18_collisions
     00000008  ___bank_scene_20_actors            scene_20_actors
     00000008  ___bank_scene_20_collisions        scene_20_collisions
     00000008  ___bank_scene_21_collisions        scene_21_collisions
     00000008  ___bank_scene_23_collisions        scene_23_collisions
     00000008  ___bank_scene_25_actors            scene_25_actors
     00000008  ___bank_scene_30_actors            scene_30_actors
     00000008  ___bank_scene_4_collisions         scene_4_collisions
     00000008  ___bank_script_s0a4_interact       script_s0a4_interact
     00000008  ___bank_tilemap_25                 tilemap_25
     00000008  ___bank_tilemap_28                 tilemap_28
     00000008  ___bank_tilemap_7                  tilemap_7
     00000008  ___bank_tilemap_attr_17            tilemap_attr_17
     00000008  ___bank_tilemap_attr_24            tilemap_attr_24
     00000008  ___bank_tilemap_attr_27            tilemap_attr_27
     00000008  ___bank_tilemap_attr_30            tilemap_attr_30
     00000008  ___bank_tilemap_attr_5             tilemap_attr_5
     00000008  ___bank_tilemap_attr_9             tilemap_attr_9
     00000008  l__HEADER3                      
     00000009  ___bank_scene_24_collisions        scene_24_collisions
     00000009  ___bank_scene_26_collisions        scene_26_collisions
     00000009  ___bank_scene_28_collisions        scene_28_collisions
     00000009  ___bank_scene_29_collisions        scene_29_collisions
     00000009  ___bank_scene_32_collisions        scene_32_collisions
     00000009  ___bank_scene_3_collisions         scene_3_collisions
     00000009  ___bank_scene_5_collisions         scene_5_collisions
     00000009  ___bank_scene_7_collisions         scene_7_collisions
     00000009  ___bank_scene_8_collisions         scene_8_collisions
     00000009  ___bank_spritesheet_18             spritesheet_18
ASxxxx Linker V03.00 + NoICE + sdld,  page 8.
Hexadecimal  [32-Bits]

Area                                    Addr        Size        Decimal Bytes (Attributes)
--------------------------------        ----        ----        ------- ----- ------------
.  .ABS.                            00000000    00000000 =           0. bytes (ABS,CON)

      Value  Global                              Global Defined In Module
      -----  --------------------------------   ------------------------
     00000009  ___bank_tilemap_10                 tilemap_10
     00000009  ___bank_tilemap_11                 tilemap_11
     00000009  ___bank_tilemap_13                 tilemap_13
     00000009  ___bank_tilemap_14                 tilemap_14
     00000009  ___bank_tilemap_17                 tilemap_17
     00000009  ___bank_tilemap_18                 tilemap_18
     00000009  ___bank_tilemap_2                  tilemap_2
     00000009  ___bank_tilemap_20                 tilemap_20
     00000009  ___bank_tilemap_21                 tilemap_21
     00000009  ___bank_tilemap_23                 tilemap_23
     00000009  ___bank_tilemap_24                 tilemap_24
     00000009  ___bank_tilemap_27                 tilemap_27
     00000009  ___bank_tilemap_29                 tilemap_29
     0000000A  ___bank_scene_10_actors            scene_10_actors
     0000000A  ___bank_scene_26_actors            scene_26_actors
     0000000A  ___bank_scene_29_actors            scene_29_actors
     0000000A  ___bank_spritesheet_10             spritesheet_10
     0000000A  ___bank_spritesheet_6              spritesheet_6
     0000000A  ___bank_tilemap_5                  tilemap_5
     0000000A  ___bank_tilemap_6                  tilemap_6
     0000000A  ___bank_tilemap_attr_12            tilemap_attr_12
     0000000A  ___bank_tilemap_attr_13            tilemap_attr_13
     0000000A  ___bank_tilemap_attr_15            tilemap_attr_15
     0000000A  ___bank_tilemap_attr_16            tilemap_attr_16
     0000000A  ___bank_tilemap_attr_19            tilemap_attr_19
     0000000A  ___bank_tilemap_attr_20            tilemap_attr_20
     0000000A  ___bank_tilemap_attr_22            tilemap_attr_22
     0000000A  ___bank_tilemap_attr_23            tilemap_attr_23
     0000000A  ___bank_tilemap_attr_25            tilemap_attr_25
     0000000A  ___bank_tilemap_attr_26            tilemap_attr_26
     0000000A  ___bank_tilemap_attr_29            tilemap_attr_29
     0000000A  ___bank_tilemap_attr_31            tilemap_attr_31
     0000000A  ___bank_tilemap_attr_4             tilemap_attr_4
     0000000A  ___bank_tilemap_attr_7             tilemap_attr_7
     0000000A  ___bank_tilemap_attr_8             tilemap_attr_8
     0000000A  ___bank_tileset_12                 tileset_12
     0000000A  ___bank_tileset_25                 tileset_25
     0000000B  ___bank_scene_0_collisions         scene_0_collisions
     0000000B  ___bank_scene_0_triggers           scene_0_triggers
     0000000B  ___bank_scene_11_collisions        scene_11_collisions
     0000000B  ___bank_scene_14_collisions        scene_14_collisions
     0000000B  ___bank_scene_15_collisions        scene_15_collisions
     0000000B  ___bank_scene_17_collisions        scene_17_collisions
     0000000B  ___bank_scene_18_actors            scene_18_actors
     0000000B  ___bank_scene_19_collisions        scene_19_collisions
     0000000B  ___bank_scene_1_collisions         scene_1_collisions
     0000000B  ___bank_scene_21_actors            scene_21_actors
     0000000B  ___bank_scene_22_collisions        scene_22_collisions
     0000000B  ___bank_scene_23_actors            scene_23_actors
     0000000B  ___bank_scene_24_actors            scene_24_actors
     0000000B  ___bank_scene_27_actors            scene_27_actors
ASxxxx Linker V03.00 + NoICE + sdld,  page 9.
Hexadecimal  [32-Bits]

Area                                    Addr        Size        Decimal Bytes (Attributes)
--------------------------------        ----        ----        ------- ----- ------------
.  .ABS.                            00000000    00000000 =           0. bytes (ABS,CON)

      Value  Global                              Global Defined In Module
      -----  --------------------------------   ------------------------
     0000000B  ___bank_scene_27_collisions        scene_27_collisions
     0000000B  ___bank_scene_28_actors            scene_28_actors
     0000000B  ___bank_scene_2_collisions         scene_2_collisions
     0000000B  ___bank_scene_31_collisions        scene_31_collisions
     0000000B  ___bank_scene_6_actors             scene_6_actors
     0000000B  ___bank_scene_7_actors             scene_7_actors
     0000000B  ___bank_scene_9_actors             scene_9_actors
     0000000B  ___bank_scene_9_collisions         scene_9_collisions
     0000000B  ___bank_script_event_player_hits   script_event_player_hitstun_
     0000000B  ___bank_script_input_1             script_input_1
     0000000B  ___bank_script_input_10            script_input_10
     0000000B  ___bank_script_input_11            script_input_11
     0000000B  ___bank_script_input_12            script_input_12
     0000000B  ___bank_script_input_13            script_input_13
     0000000B  ___bank_script_input_5             script_input_5
     0000000B  ___bank_script_input_6             script_input_6
     0000000B  ___bank_script_input_7             script_input_7
     0000000B  ___bank_script_input_8             script_input_8
     0000000B  ___bank_script_input_9             script_input_9
     0000000B  ___bank_spritesheet_5              spritesheet_5
     0000000B  ___bank_tilemap_0                  tilemap_0
     0000000B  ___bank_tilemap_1                  tilemap_1
     0000000B  ___bank_tilemap_12                 tilemap_12
     0000000B  ___bank_tilemap_16                 tilemap_16
     0000000B  ___bank_tilemap_19                 tilemap_19
     0000000B  ___bank_tilemap_26                 tilemap_26
     0000000B  ___bank_tileset_10                 tileset_10
     0000000B  ___bank_tileset_6                  tileset_6
     0000000C  ___bank_scene_0_actors             scene_0_actors
     0000000C  ___bank_scene_11_actors            scene_11_actors
     0000000C  ___bank_scene_12_actors            scene_12_actors
     0000000C  ___bank_scene_13_actors            scene_13_actors
     0000000C  ___bank_scene_19_actors            scene_19_actors
     0000000C  ___bank_scene_22_actors            scene_22_actors
     0000000C  ___bank_scene_31_actors            scene_31_actors
     0000000C  ___bank_scene_3_actors             scene_3_actors
     0000000C  ___bank_scene_5_actors             scene_5_actors
     0000000C  ___bank_script_event_player_hits   script_event_player_hitstun
     0000000C  ___bank_script_event_player_hits   script_event_player_hitstun_
     0000000C  ___bank_script_input_3             script_input_3
     0000000C  ___bank_script_s0a1_interact       script_s0a1_interact
     0000000C  ___bank_script_s11a0_interact      script_s11a0_interact
     0000000C  ___bank_script_s13a1_update        script_s13a1_update
     0000000C  ___bank_script_s13a2_update        script_s13a2_update
     0000000C  ___bank_script_s17a4_interact      script_s17a4_interact
     0000000C  ___bank_script_s18a8_update        script_s18a8_update
     0000000C  ___bank_script_s19a4_interact      script_s19a4_interact
     0000000C  ___bank_script_s20a12_update       script_s20a12_update
     0000000C  ___bank_script_s20a13_update       script_s20a13_update
     0000000C  ___bank_script_s22a4_interact      script_s22a4_interact
     0000000C  ___bank_script_s22a5_update        script_s22a5_update
ASxxxx Linker V03.00 + NoICE + sdld,  page 10.
Hexadecimal  [32-Bits]

Area                                    Addr        Size        Decimal Bytes (Attributes)
--------------------------------        ----        ----        ------- ----- ------------
.  .ABS.                            00000000    00000000 =           0. bytes (ABS,CON)

      Value  Global                              Global Defined In Module
      -----  --------------------------------   ------------------------
     0000000C  ___bank_script_s23a4_update        script_s23a4_update
     0000000C  ___bank_script_s23a5_update        script_s23a5_update
     0000000C  ___bank_script_s23a7_update        script_s23a7_update
     0000000C  ___bank_script_s23a8_interact      script_s23a8_interact
     0000000C  ___bank_script_s27a6_interact      script_s27a6_interact
     0000000C  ___bank_script_s27a7_update        script_s27a7_update
     0000000C  ___bank_script_s28a7_update        script_s28a7_update
     0000000C  ___bank_script_s29a10_update       script_s29a10_update
     0000000C  ___bank_script_s29a11_update       script_s29a11_update
     0000000C  ___bank_script_s31a3_interact      script_s31a3_interact
     0000000C  ___bank_script_s3a0_update         script_s3a0_update
     0000000C  ___bank_script_s3a3_update         script_s3a3_update
     0000000C  ___bank_script_s9_init             script_s9_init
     0000000C  ___bank_spritesheet_14             spritesheet_14
     0000000C  ___bank_tilemap_30                 tilemap_30
     0000000C  ___bank_tilemap_4                  tilemap_4
     0000000C  ___bank_tilemap_8                  tilemap_8
     0000000C  ___bank_tilemap_9                  tilemap_9
     0000000C  ___bank_tilemap_attr_0             tilemap_attr_0
     0000000C  ___bank_tilemap_attr_1             tilemap_attr_1
     0000000C  ___bank_tilemap_attr_10            tilemap_attr_10
     0000000C  ___bank_tilemap_attr_11            tilemap_attr_11
     0000000C  ___bank_tilemap_attr_14            tilemap_attr_14
     0000000C  ___bank_tilemap_attr_18            tilemap_attr_18
     0000000C  ___bank_tilemap_attr_2             tilemap_attr_2
     0000000C  ___bank_tilemap_attr_21            tilemap_attr_21
     0000000C  ___bank_tilemap_attr_28            tilemap_attr_28
     0000000C  ___bank_tilemap_attr_3             tilemap_attr_3
     0000000C  ___bank_tilemap_attr_32            tilemap_attr_32
     0000000C  ___bank_tilemap_attr_6             tilemap_attr_6
     0000000C  ___bank_tileset_20                 tileset_20
     0000000C  ___bank_tileset_21                 tileset_21
     0000000C  ___bank_tileset_22                 tileset_22
     0000000C  ___bank_tileset_26                 tileset_26
     0000000C  __start_save                    
     0000000D  ___bank_frame_image                frame_image
     0000000D  ___bank_scene_0                    scene_0
     0000000D  ___bank_scene_12_projectiles       scene_12_projectiles
     0000000D  ___bank_scene_16_actors            scene_16_actors
     0000000D  ___bank_scene_32_actors            scene_32_actors
     0000000D  ___bank_scene_4_actors             scene_4_actors
     0000000D  ___bank_scene_8_actors             scene_8_actors
     0000000D  ___bank_script_enemy_boss_hitstu   script_enemy_boss_hitstun
     0000000D  ___bank_script_engine_init         
     0000000D  ___bank_script_event_enemy_hitst   script_event_enemy_hitstun
     0000000D  ___bank_script_s0_init             script_s0_init
     0000000D  ___bank_script_s0a4_update         script_s0a4_update
     0000000D  ___bank_script_s0t0_interact       script_s0t0_interact
     0000000D  ___bank_script_s10_init            script_s10_init
     0000000D  ___bank_script_s10a12_update       script_s10a12_update
     0000000D  ___bank_script_s10a8_update        script_s10a8_update
ASxxxx Linker V03.00 + NoICE + sdld,  page 11.
Hexadecimal  [32-Bits]

Area                                    Addr        Size        Decimal Bytes (Attributes)
--------------------------------        ----        ----        ------- ----- ------------
.  .ABS.                            00000000    00000000 =           0. bytes (ABS,CON)

      Value  Global                              Global Defined In Module
      -----  --------------------------------   ------------------------
     0000000D  ___bank_script_s10a9_update        script_s10a9_update
     0000000D  ___bank_script_s11_init            script_s11_init
     0000000D  ___bank_script_s12_init            script_s12_init
     0000000D  ___bank_script_s12a6_interact      script_s12a6_interact
     0000000D  ___bank_script_s12a6_update        script_s12a6_update
     0000000D  ___bank_script_s13_init            script_s13_init
     0000000D  ___bank_script_s13a0_update        script_s13a0_update
     0000000D  ___bank_script_s13a3_update        script_s13a3_update
     0000000D  ___bank_script_s14_init            script_s14_init
     0000000D  ___bank_script_s15_init            script_s15_init
     0000000D  ___bank_script_s16_init            script_s16_init
     0000000D  ___bank_script_s17_init            script_s17_init
     0000000D  ___bank_script_s17a5_update        script_s17a5_update
     0000000D  ___bank_script_s17t0_interact      script_s17t0_interact
     0000000D  ___bank_script_s18_init            script_s18_init
     0000000D  ___bank_script_s18a7_update        script_s18a7_update
     0000000D  ___bank_script_s18a9_update        script_s18a9_update
     0000000D  ___bank_script_s19_init            script_s19_init
     0000000D  ___bank_script_s19a5_update        script_s19a5_update
     0000000D  ___bank_script_s19t0_interact      script_s19t0_interact
     0000000D  ___bank_script_s1_init             script_s1_init
     0000000D  ___bank_script_s20_init            script_s20_init
     0000000D  ___bank_script_s20a14_update       script_s20a14_update
     0000000D  ___bank_script_s20a15_update       script_s20a15_update
     0000000D  ___bank_script_s21_init            script_s21_init
     0000000D  ___bank_script_s21a6_update        script_s21a6_update
     0000000D  ___bank_script_s21a7_update        script_s21a7_update
     0000000D  ___bank_script_s21a8_update        script_s21a8_update
     0000000D  ___bank_script_s21t0_interact      script_s21t0_interact
     0000000D  ___bank_script_s22_init            script_s22_init
     0000000D  ___bank_script_s22t0_interact      script_s22t0_interact
     0000000D  ___bank_script_s23_init            script_s23_init
     0000000D  ___bank_script_s23a6_update        script_s23a6_update
     0000000D  ___bank_script_s23t0_interact      script_s23t0_interact
     0000000D  ___bank_script_s24_init            script_s24_init
     0000000D  ___bank_script_s24a6_update        script_s24a6_update
     0000000D  ___bank_script_s24a7_update        script_s24a7_update
     0000000D  ___bank_script_s24a8_update        script_s24a8_update
     0000000D  ___bank_script_s24a9_update        script_s24a9_update
     0000000D  ___bank_script_s24t0_interact      script_s24t0_interact
     0000000D  ___bank_script_s25_init            script_s25_init
     0000000D  ___bank_script_s25a7_update        script_s25a7_update
     0000000D  ___bank_script_s25a8_update        script_s25a8_update
     0000000D  ___bank_script_s25a9_update        script_s25a9_update
     0000000D  ___bank_script_s26_init            script_s26_init
     0000000D  ___bank_script_s26a10_update       script_s26a10_update
     0000000D  ___bank_script_s26a11_update       script_s26a11_update
     0000000D  ___bank_script_s26a8_update        script_s26a8_update
     0000000D  ___bank_script_s26a9_update        script_s26a9_update
     0000000D  ___bank_script_s26t0_interact      script_s26t0_interact
     0000000D  ___bank_script_s27_init            script_s27_init
ASxxxx Linker V03.00 + NoICE + sdld,  page 12.
Hexadecimal  [32-Bits]

Area                                    Addr        Size        Decimal Bytes (Attributes)
--------------------------------        ----        ----        ------- ----- ------------
.  .ABS.                            00000000    00000000 =           0. bytes (ABS,CON)

      Value  Global                              Global Defined In Module
      -----  --------------------------------   ------------------------
     0000000D  ___bank_script_s27a8_update        script_s27a8_update
     0000000D  ___bank_script_s27t0_interact      script_s27t0_interact
     0000000D  ___bank_script_s28_init            script_s28_init
     0000000D  ___bank_script_s28a10_update       script_s28a10_update
     0000000D  ___bank_script_s28a8_update        script_s28a8_update
     0000000D  ___bank_script_s28a9_update        script_s28a9_update
     0000000D  ___bank_script_s28t0_interact      script_s28t0_interact
     0000000D  ___bank_script_s29_init            script_s29_init
     0000000D  ___bank_script_s29a12_update       script_s29a12_update
     0000000D  ___bank_script_s29a13_update       script_s29a13_update
     0000000D  ___bank_script_s29a9_update        script_s29a9_update
     0000000D  ___bank_script_s29t0_interact      script_s29t0_interact
     0000000D  ___bank_script_s2_init             script_s2_init
     0000000D  ___bank_script_s30_init            script_s30_init
     0000000D  ___bank_script_s30a11_update       script_s30a11_update
     0000000D  ___bank_script_s30a12_update       script_s30a12_update
     0000000D  ___bank_script_s30a13_update       script_s30a13_update
     0000000D  ___bank_script_s30a14_update       script_s30a14_update
     0000000D  ___bank_script_s31_init            script_s31_init
     0000000D  ___bank_script_s31a2_update        script_s31a2_update
     0000000D  ___bank_script_s31t0_interact      script_s31t0_interact
     0000000D  ___bank_script_s32_init            script_s32_init
     0000000D  ___bank_script_s3_init             script_s3_init
     0000000D  ___bank_script_s3a2_update         script_s3a2_update
     0000000D  ___bank_script_s3t0_interact       script_s3t0_interact
     0000000D  ___bank_script_s4_init             script_s4_init
     0000000D  ___bank_script_s4a2_update         script_s4a2_update
     0000000D  ___bank_script_s4a3_update         script_s4a3_update
     0000000D  ___bank_script_s5_init             script_s5_init
     0000000D  ___bank_script_s5a0_interact       script_s5a0_interact
     0000000D  ___bank_script_s5a0_update         script_s5a0_update
     0000000D  ___bank_script_s5t0_interact       script_s5t0_interact
     0000000D  ___bank_script_s6_init             script_s6_init
     0000000D  ___bank_script_s6a2_update         script_s6a2_update
     0000000D  ___bank_script_s6a3_update         script_s6a3_update
     0000000D  ___bank_script_s6a4_update         script_s6a4_update
     0000000D  ___bank_script_s6t0_interact       script_s6t0_interact
     0000000D  ___bank_script_s7_init             script_s7_init
     0000000D  ___bank_script_s7a2_update         script_s7a2_update
     0000000D  ___bank_script_s7a3_update         script_s7a3_update
     0000000D  ___bank_script_s7t0_interact       script_s7t0_interact
     0000000D  ___bank_script_s8_init             script_s8_init
     0000000D  ___bank_script_s8a2_update         script_s8a2_update
     0000000D  ___bank_script_s8t0_interact       script_s8t0_interact
     0000000D  ___bank_spritesheet_1              spritesheet_1
     0000000D  ___bank_spritesheet_11             spritesheet_11
     0000000D  ___bank_spritesheet_13             spritesheet_13
     0000000D  ___bank_spritesheet_15             spritesheet_15
     0000000D  ___bank_spritesheet_19             spritesheet_19
     0000000D  ___bank_spritesheet_20             spritesheet_20
     0000000D  ___bank_spritesheet_3              spritesheet_3
ASxxxx Linker V03.00 + NoICE + sdld,  page 13.
Hexadecimal  [32-Bits]

Area                                    Addr        Size        Decimal Bytes (Attributes)
--------------------------------        ----        ----        ------- ----- ------------
.  .ABS.                            00000000    00000000 =           0. bytes (ABS,CON)

      Value  Global                              Global Defined In Module
      -----  --------------------------------   ------------------------
     0000000D  ___bank_spritesheet_4              spritesheet_4
     0000000D  ___bank_spritesheet_7              spritesheet_7
     0000000D  ___bank_spritesheet_8              spritesheet_8
     0000000D  ___bank_tileset_11                 tileset_11
     0000000D  ___bank_tileset_14                 tileset_14
     0000000D  ___bank_tileset_15                 tileset_15
     0000000D  ___bank_tileset_17                 tileset_17
     0000000D  ___bank_tileset_18                 tileset_18
     0000000D  ___bank_tileset_19                 tileset_19
     0000000D  ___bank_tileset_27                 tileset_27
     0000000D  ___bank_tileset_8                  tileset_8
     0000000E  ___bank_background_0               background_0
     0000000E  ___bank_background_1               background_1
     0000000E  ___bank_background_10              background_10
     0000000E  ___bank_background_11              background_11
     0000000E  ___bank_background_12              background_12
     0000000E  ___bank_background_13              background_13
     0000000E  ___bank_background_14              background_14
     0000000E  ___bank_background_15              background_15
     0000000E  ___bank_background_16              background_16
     0000000E  ___bank_background_17              background_17
     0000000E  ___bank_background_18              background_18
     0000000E  ___bank_background_19              background_19
     0000000E  ___bank_background_2               background_2
     0000000E  ___bank_background_20              background_20
     0000000E  ___bank_background_21              background_21
     0000000E  ___bank_background_22              background_22
     0000000E  ___bank_background_23              background_23
     0000000E  ___bank_background_24              background_24
     0000000E  ___bank_background_25              background_25
     0000000E  ___bank_background_26              background_26
     0000000E  ___bank_background_27              background_27
     0000000E  ___bank_background_28              background_28
     0000000E  ___bank_background_29              background_29
     0000000E  ___bank_background_3               background_3
     0000000E  ___bank_background_30              background_30
     0000000E  ___bank_background_31              background_31
     0000000E  ___bank_background_32              background_32
     0000000E  ___bank_background_4               background_4
     0000000E  ___bank_background_5               background_5
     0000000E  ___bank_background_6               background_6
     0000000E  ___bank_background_7               background_7
     0000000E  ___bank_background_8               background_8
     0000000E  ___bank_background_9               background_9
     0000000E  ___bank_bootstrap_script           
     0000000E  ___bank_cursor_image               cursor_image
     0000000E  ___bank_palette_0                  palette_0
     0000000E  ___bank_palette_1                  palette_1
     0000000E  ___bank_palette_2                  palette_2
     0000000E  ___bank_palette_3                  palette_3
     0000000E  ___bank_palette_4                  palette_4
ASxxxx Linker V03.00 + NoICE + sdld,  page 14.
Hexadecimal  [32-Bits]

Area                                    Addr        Size        Decimal Bytes (Attributes)
--------------------------------        ----        ----        ------- ----- ------------
.  .ABS.                            00000000    00000000 =           0. bytes (ABS,CON)

      Value  Global                              Global Defined In Module
      -----  --------------------------------   ------------------------
     0000000E  ___bank_scene_0_projectiles        scene_0_projectiles
     0000000E  ___bank_scene_0_sprites            scene_0_sprites
     0000000E  ___bank_scene_1                    scene_1
     0000000E  ___bank_scene_10                   scene_10
     0000000E  ___bank_scene_10_projectiles       scene_10_projectiles
     0000000E  ___bank_scene_10_sprites           scene_10_sprites
     0000000E  ___bank_scene_10_triggers          scene_10_triggers
     0000000E  ___bank_scene_11                   scene_11
     0000000E  ___bank_scene_11_projectiles       scene_11_projectiles
     0000000E  ___bank_scene_11_sprites           scene_11_sprites
     0000000E  ___bank_scene_11_triggers          scene_11_triggers
     0000000E  ___bank_scene_12                   scene_12
     0000000E  ___bank_scene_12_sprites           scene_12_sprites
     0000000E  ___bank_scene_12_triggers          scene_12_triggers
     0000000E  ___bank_scene_13                   scene_13
     0000000E  ___bank_scene_13_projectiles       scene_13_projectiles
     0000000E  ___bank_scene_13_sprites           scene_13_sprites
     0000000E  ___bank_scene_13_triggers          scene_13_triggers
     0000000E  ___bank_scene_14                   scene_14
     0000000E  ___bank_scene_15                   scene_15
     0000000E  ___bank_scene_16                   scene_16
     0000000E  ___bank_scene_16_projectiles       scene_16_projectiles
     0000000E  ___bank_scene_16_sprites           scene_16_sprites
     0000000E  ___bank_scene_16_triggers          scene_16_triggers
     0000000E  ___bank_scene_17                   scene_17
     0000000E  ___bank_scene_17_projectiles       scene_17_projectiles
     0000000E  ___bank_scene_17_sprites           scene_17_sprites
     0000000E  ___bank_scene_17_triggers          scene_17_triggers
     0000000E  ___bank_scene_18                   scene_18
     0000000E  ___bank_scene_18_projectiles       scene_18_projectiles
     0000000E  ___bank_scene_18_sprites           scene_18_sprites
     0000000E  ___bank_scene_18_triggers          scene_18_triggers
     0000000E  ___bank_scene_19                   scene_19
     0000000E  ___bank_scene_19_projectiles       scene_19_projectiles
     0000000E  ___bank_scene_19_sprites           scene_19_sprites
     0000000E  ___bank_scene_19_triggers          scene_19_triggers
     0000000E  ___bank_scene_1_actors             scene_1_actors
     0000000E  ___bank_scene_1_projectiles        scene_1_projectiles
     0000000E  ___bank_scene_1_sprites            scene_1_sprites
     0000000E  ___bank_scene_2                    scene_2
     0000000E  ___bank_scene_20                   scene_20
     0000000E  ___bank_scene_20_projectiles       scene_20_projectiles
     0000000E  ___bank_scene_20_sprites           scene_20_sprites
     0000000E  ___bank_scene_20_triggers          scene_20_triggers
     0000000E  ___bank_scene_21                   scene_21
     0000000E  ___bank_scene_21_projectiles       scene_21_projectiles
     0000000E  ___bank_scene_21_sprites           scene_21_sprites
     0000000E  ___bank_scene_21_triggers          scene_21_triggers
     0000000E  ___bank_scene_22                   scene_22
     0000000E  ___bank_scene_22_projectiles       scene_22_projectiles
     0000000E  ___bank_scene_22_sprites           scene_22_sprites
ASxxxx Linker V03.00 + NoICE + sdld,  page 15.
Hexadecimal  [32-Bits]

Area                                    Addr        Size        Decimal Bytes (Attributes)
--------------------------------        ----        ----        ------- ----- ------------
.  .ABS.                            00000000    00000000 =           0. bytes (ABS,CON)

      Value  Global                              Global Defined In Module
      -----  --------------------------------   ------------------------
     0000000E  ___bank_scene_22_triggers          scene_22_triggers
     0000000E  ___bank_scene_23                   scene_23
     0000000E  ___bank_scene_23_projectiles       scene_23_projectiles
     0000000E  ___bank_scene_23_sprites           scene_23_sprites
     0000000E  ___bank_scene_23_triggers          scene_23_triggers
     0000000E  ___bank_scene_24                   scene_24
     0000000E  ___bank_scene_24_projectiles       scene_24_projectiles
     0000000E  ___bank_scene_24_sprites           scene_24_sprites
     0000000E  ___bank_scene_24_triggers          scene_24_triggers
     0000000E  ___bank_scene_25                   scene_25
     0000000E  ___bank_scene_25_projectiles       scene_25_projectiles
     0000000E  ___bank_scene_25_sprites           scene_25_sprites
     0000000E  ___bank_scene_25_triggers          scene_25_triggers
     0000000E  ___bank_scene_26                   scene_26
     0000000E  ___bank_scene_26_projectiles       scene_26_projectiles
     0000000E  ___bank_scene_26_sprites           scene_26_sprites
     0000000E  ___bank_scene_26_triggers          scene_26_triggers
     0000000E  ___bank_scene_27                   scene_27
     0000000E  ___bank_scene_27_projectiles       scene_27_projectiles
     0000000E  ___bank_scene_27_sprites           scene_27_sprites
     0000000E  ___bank_scene_27_triggers          scene_27_triggers
     0000000E  ___bank_scene_28                   scene_28
     0000000E  ___bank_scene_28_projectiles       scene_28_projectiles
     0000000E  ___bank_scene_28_sprites           scene_28_sprites
     0000000E  ___bank_scene_28_triggers          scene_28_triggers
     0000000E  ___bank_scene_29                   scene_29
     0000000E  ___bank_scene_29_projectiles       scene_29_projectiles
     0000000E  ___bank_scene_29_sprites           scene_29_sprites
     0000000E  ___bank_scene_29_triggers          scene_29_triggers
     0000000E  ___bank_scene_3                    scene_3
     0000000E  ___bank_scene_30                   scene_30
     0000000E  ___bank_scene_30_projectiles       scene_30_projectiles
     0000000E  ___bank_scene_30_sprites           scene_30_sprites
     0000000E  ___bank_scene_30_triggers          scene_30_triggers
     0000000E  ___bank_scene_31                   scene_31
     0000000E  ___bank_scene_31_projectiles       scene_31_projectiles
     0000000E  ___bank_scene_31_sprites           scene_31_sprites
     0000000E  ___bank_scene_31_triggers          scene_31_triggers
     0000000E  ___bank_scene_32                   scene_32
     0000000E  ___bank_scene_32_projectiles       scene_32_projectiles
     0000000E  ___bank_scene_32_sprites           scene_32_sprites
     0000000E  ___bank_scene_32_triggers          scene_32_triggers
     0000000E  ___bank_scene_3_projectiles        scene_3_projectiles
     0000000E  ___bank_scene_3_sprites            scene_3_sprites
     0000000E  ___bank_scene_3_triggers           scene_3_triggers
     0000000E  ___bank_scene_4                    scene_4
     0000000E  ___bank_scene_4_projectiles        scene_4_projectiles
     0000000E  ___bank_scene_4_sprites            scene_4_sprites
     0000000E  ___bank_scene_4_triggers           scene_4_triggers
     0000000E  ___bank_scene_5                    scene_5
     0000000E  ___bank_scene_5_projectiles        scene_5_projectiles
ASxxxx Linker V03.00 + NoICE + sdld,  page 16.
Hexadecimal  [32-Bits]

Area                                    Addr        Size        Decimal Bytes (Attributes)
--------------------------------        ----        ----        ------- ----- ------------
.  .ABS.                            00000000    00000000 =           0. bytes (ABS,CON)

      Value  Global                              Global Defined In Module
      -----  --------------------------------   ------------------------
     0000000E  ___bank_scene_5_sprites            scene_5_sprites
     0000000E  ___bank_scene_5_triggers           scene_5_triggers
     0000000E  ___bank_scene_6                    scene_6
     0000000E  ___bank_scene_6_projectiles        scene_6_projectiles
     0000000E  ___bank_scene_6_sprites            scene_6_sprites
     0000000E  ___bank_scene_6_triggers           scene_6_triggers
     0000000E  ___bank_scene_7                    scene_7
     0000000E  ___bank_scene_7_projectiles        scene_7_projectiles
     0000000E  ___bank_scene_7_sprites            scene_7_sprites
     0000000E  ___bank_scene_7_triggers           scene_7_triggers
     0000000E  ___bank_scene_8                    scene_8
     0000000E  ___bank_scene_8_projectiles        scene_8_projectiles
     0000000E  ___bank_scene_8_sprites            scene_8_sprites
     0000000E  ___bank_scene_8_triggers           scene_8_triggers
     0000000E  ___bank_scene_9                    scene_9
     0000000E  ___bank_scene_9_projectiles        scene_9_projectiles
     0000000E  ___bank_scene_9_sprites            scene_9_sprites
     0000000E  ___bank_script_init_custominputs   script_init_custominputs
     0000000E  ___bank_script_init_player_jumps   script_init_player_jumpsfx
     0000000E  ___bank_script_init_resetvariabl   script_init_resetvariables
     0000000E  ___bank_script_input_0             script_input_0
     0000000E  ___bank_script_input_4             script_input_4
     0000000E  ___bank_script_s0_p_hit1           script_s0_p_hit1
     0000000E  ___bank_script_s10_p_hit1          script_s10_p_hit1
     0000000E  ___bank_script_s10a12_interact     script_s10a12_interact
     0000000E  ___bank_script_s10a8_interact      script_s10a8_interact
     0000000E  ___bank_script_s10a9_interact      script_s10a9_interact
     0000000E  ___bank_script_s10t0_interact      script_s10t0_interact
     0000000E  ___bank_script_s10t1_interact      script_s10t1_interact
     0000000E  ___bank_script_s11_p_hit1          script_s11_p_hit1
     0000000E  ___bank_script_s11t0_interact      script_s11t0_interact
     0000000E  ___bank_script_s12_p_hit1          script_s12_p_hit1
     0000000E  ___bank_script_s12t0_interact      script_s12t0_interact
     0000000E  ___bank_script_s13_p_hit1          script_s13_p_hit1
     0000000E  ___bank_script_s13a0_interact      script_s13a0_interact
     0000000E  ___bank_script_s13a1_interact      script_s13a1_interact
     0000000E  ___bank_script_s13a2_interact      script_s13a2_interact
     0000000E  ___bank_script_s13a3_interact      script_s13a3_interact
     0000000E  ___bank_script_s16t0_interact      script_s16t0_interact
     0000000E  ___bank_script_s17_p_hit1          script_s17_p_hit1
     0000000E  ___bank_script_s17a5_interact      script_s17a5_interact
     0000000E  ___bank_script_s18_p_hit1          script_s18_p_hit1
     0000000E  ___bank_script_s18a7_interact      script_s18a7_interact
     0000000E  ___bank_script_s18a8_interact      script_s18a8_interact
     0000000E  ___bank_script_s18a9_interact      script_s18a9_interact
     0000000E  ___bank_script_s18t0_interact      script_s18t0_interact
     0000000E  ___bank_script_s19_p_hit1          script_s19_p_hit1
     0000000E  ___bank_script_s19a5_interact      script_s19a5_interact
     0000000E  ___bank_script_s20_p_hit1          script_s20_p_hit1
     0000000E  ___bank_script_s20a12_interact     script_s20a12_interact
     0000000E  ___bank_script_s20a13_interact     script_s20a13_interact
ASxxxx Linker V03.00 + NoICE + sdld,  page 17.
Hexadecimal  [32-Bits]

Area                                    Addr        Size        Decimal Bytes (Attributes)
--------------------------------        ----        ----        ------- ----- ------------
.  .ABS.                            00000000    00000000 =           0. bytes (ABS,CON)

      Value  Global                              Global Defined In Module
      -----  --------------------------------   ------------------------
     0000000E  ___bank_script_s20a14_interact     script_s20a14_interact
     0000000E  ___bank_script_s20a15_interact     script_s20a15_interact
     0000000E  ___bank_script_s20t0_interact      script_s20t0_interact
     0000000E  ___bank_script_s21_p_hit1          script_s21_p_hit1
     0000000E  ___bank_script_s21a6_interact      script_s21a6_interact
     0000000E  ___bank_script_s21a7_interact      script_s21a7_interact
     0000000E  ___bank_script_s21a8_interact      script_s21a8_interact
     0000000E  ___bank_script_s22_p_hit1          script_s22_p_hit1
     0000000E  ___bank_script_s22a5_interact      script_s22a5_interact
     0000000E  ___bank_script_s23_p_hit1          script_s23_p_hit1
     0000000E  ___bank_script_s23a4_interact      script_s23a4_interact
     0000000E  ___bank_script_s23a5_interact      script_s23a5_interact
     0000000E  ___bank_script_s23a6_interact      script_s23a6_interact
     0000000E  ___bank_script_s23a7_interact      script_s23a7_interact
     0000000E  ___bank_script_s24_p_hit1          script_s24_p_hit1
     0000000E  ___bank_script_s24a6_interact      script_s24a6_interact
     0000000E  ___bank_script_s24a7_interact      script_s24a7_interact
     0000000E  ___bank_script_s24a8_interact      script_s24a8_interact
     0000000E  ___bank_script_s24a9_interact      script_s24a9_interact
     0000000E  ___bank_script_s25_p_hit1          script_s25_p_hit1
     0000000E  ___bank_script_s25a7_interact      script_s25a7_interact
     0000000E  ___bank_script_s25a8_interact      script_s25a8_interact
     0000000E  ___bank_script_s25a9_interact      script_s25a9_interact
     0000000E  ___bank_script_s25t0_interact      script_s25t0_interact
     0000000E  ___bank_script_s25t1_interact      script_s25t1_interact
     0000000E  ___bank_script_s26_p_hit1          script_s26_p_hit1
     0000000E  ___bank_script_s26a10_interact     script_s26a10_interact
     0000000E  ___bank_script_s26a11_interact     script_s26a11_interact
     0000000E  ___bank_script_s26a8_interact      script_s26a8_interact
     0000000E  ___bank_script_s26a9_interact      script_s26a9_interact
     0000000E  ___bank_script_s27_p_hit1          script_s27_p_hit1
     0000000E  ___bank_script_s27a7_interact      script_s27a7_interact
     0000000E  ___bank_script_s27a8_interact      script_s27a8_interact
     0000000E  ___bank_script_s28_p_hit1          script_s28_p_hit1
     0000000E  ___bank_script_s28a10_interact     script_s28a10_interact
     0000000E  ___bank_script_s28a7_interact      script_s28a7_interact
     0000000E  ___bank_script_s28a8_interact      script_s28a8_interact
     0000000E  ___bank_script_s28a9_interact      script_s28a9_interact
     0000000E  ___bank_script_s29_p_hit1          script_s29_p_hit1
     0000000E  ___bank_script_s29a10_interact     script_s29a10_interact
     0000000E  ___bank_script_s29a11_interact     script_s29a11_interact
     0000000E  ___bank_script_s29a12_interact     script_s29a12_interact
     0000000E  ___bank_script_s29a13_interact     script_s29a13_interact
     0000000E  ___bank_script_s29a9_interact      script_s29a9_interact
     0000000E  ___bank_script_s30_p_hit1          script_s30_p_hit1
     0000000E  ___bank_script_s30a11_interact     script_s30a11_interact
     0000000E  ___bank_script_s30a12_interact     script_s30a12_interact
     0000000E  ___bank_script_s30a13_interact     script_s30a13_interact
     0000000E  ___bank_script_s30a14_interact     script_s30a14_interact
     0000000E  ___bank_script_s30t0_interact      script_s30t0_interact
     0000000E  ___bank_script_s30t1_interact      script_s30t1_interact
ASxxxx Linker V03.00 + NoICE + sdld,  page 18.
Hexadecimal  [32-Bits]

Area                                    Addr        Size        Decimal Bytes (Attributes)
--------------------------------        ----        ----        ------- ----- ------------
.  .ABS.                            00000000    00000000 =           0. bytes (ABS,CON)

      Value  Global                              Global Defined In Module
      -----  --------------------------------   ------------------------
     0000000E  ___bank_script_s31_p_hit1          script_s31_p_hit1
     0000000E  ___bank_script_s31a2_interact      script_s31a2_interact
     0000000E  ___bank_script_s32_p_hit1          script_s32_p_hit1
     0000000E  ___bank_script_s32t0_interact      script_s32t0_interact
     0000000E  ___bank_script_s3_p_hit1           script_s3_p_hit1
     0000000E  ___bank_script_s3a0_interact       script_s3a0_interact
     0000000E  ___bank_script_s3a2_interact       script_s3a2_interact
     0000000E  ___bank_script_s3a3_interact       script_s3a3_interact
     0000000E  ___bank_script_s4a2_interact       script_s4a2_interact
     0000000E  ___bank_script_s4a3_interact       script_s4a3_interact
     0000000E  ___bank_script_s4t0_interact       script_s4t0_interact
     0000000E  ___bank_script_s4t1_interact       script_s4t1_interact
     0000000E  ___bank_script_s5_p_hit1           script_s5_p_hit1
     0000000E  ___bank_script_s6_p_hit1           script_s6_p_hit1
     0000000E  ___bank_script_s6a2_interact       script_s6a2_interact
     0000000E  ___bank_script_s6a3_interact       script_s6a3_interact
     0000000E  ___bank_script_s6a4_interact       script_s6a4_interact
     0000000E  ___bank_script_s7_p_hit1           script_s7_p_hit1
     0000000E  ___bank_script_s7a2_interact       script_s7a2_interact
     0000000E  ___bank_script_s7a3_interact       script_s7a3_interact
     0000000E  ___bank_script_s8_p_hit1           script_s8_p_hit1
     0000000E  ___bank_script_s8a2_interact       script_s8a2_interact
     0000000E  ___bank_script_s9_p_hit1           script_s9_p_hit1
     0000000E  ___bank_script_s9a0_interact       script_s9a0_interact
     0000000E  ___bank_script_sfx_fireball_atta   script_sfx_fireball_attack
     0000000E  ___bank_script_sfx_jump            script_sfx_jump
     0000000E  ___bank_spritesheet_0              spritesheet_0
     0000000E  ___bank_spritesheet_12             spritesheet_12
     0000000E  ___bank_spritesheet_16             spritesheet_16
     0000000E  ___bank_spritesheet_17             spritesheet_17
     0000000E  ___bank_spritesheet_2              spritesheet_2
     0000000E  ___bank_spritesheet_21             spritesheet_21
     0000000E  ___bank_spritesheet_22             spritesheet_22
     0000000E  ___bank_spritesheet_9              spritesheet_9
     0000000E  ___bank_tileset_16                 tileset_16
     0000000E  ___bank_tileset_23                 tileset_23
     0000000E  ___bank_tileset_24                 tileset_24
     0000000E  ___bank_tileset_28                 tileset_28
     0000000E  ___bank_tileset_7                  tileset_7
     0000000E  ___bank_tileset_9                  tileset_9
     0000000E  l__INITIALIZED                  
     0000000E  l__INITIALIZER                  
     0000002D  l__GSINIT                       
     00000030  l__HEADER6                      
     0000004E  l__HEADER4                      
     00000082  l__HEADER10                     
     000001CB  l__CRASH_SCRATCH2               
     00000200  s__CODE                         
     00000C03  l__CODE                         
     00000E03  s__HOME                         
     000018FB  l__DATA                         
ASxxxx Linker V03.00 + NoICE + sdld,  page 19.
Hexadecimal  [32-Bits]

Area                                    Addr        Size        Decimal Bytes (Attributes)
--------------------------------        ----        ----        ------- ----- ------------
.  .ABS.                            00000000    00000000 =           0. bytes (ABS,CON)

      Value  Global                              Global Defined In Module
      -----  --------------------------------   ------------------------
     00002000  _rROMB0                            
     000026BD  l__CODE_14                      
     000027A6  l__HOME                         
     00002947  l__CODE_4                       
     000029A6  l__CODE_1                       
     00002ADB  l__CODE_3                       
     00003000  _rROMB1                            
     000035A9  s__BASE                         
     000035A9  s__CODE_0                       
     000035A9  s__INITIALIZER                  
     000035A9  s__LIT                          
     000035B7  s__GSINIT                       
     000035E4  s__GSFINAL                      
     0000395A  l__CODE_2                       
     00003FFD  l__CODE_9                       
     00003FFE  l__CODE_10                      
     00003FFE  l__CODE_13                      
     00003FFE  l__CODE_8                       
     00003FFF  l__CODE_11                      
     00003FFF  l__CODE_7                       
     00004000  _RTC_SELECT_REG                    vm_rtc
     00004000  _rRAMB                             
     00004000  l__CODE_12                      
     00004000  l__CODE_5                       
     00004000  l__CODE_6                       
     00006000  _RTC_LATCH_REG                     vm_rtc
     00008000  __VRAM                             
     00008000  __VRAM8000                         
     00008800  __VRAM8800                         
     00009000  __VRAM9000                         
     00009800  __SCRN0                            
     00009C00  __SCRN1                            
     0000A000  _RTC_VALUE_REG                     vm_rtc
     0000A000  __SRAM                             
     0000C000  __RAM                              
     0000C000  _shadow_OAM                     
     0000C0A0  s__DATA                         
     0000D000  __RAMBANK                          
     0000D99B  s__BSS                          
     0000D99B  s__INITIALIZED                  
     0000D9A9  s__HEAP                         
     0000DF00  .STACK                          
     0000DF00  _shadow_OAM2                       absolute
     0000DFA0  _BkgPalette                        absolute
     0000DFE0  _vwf_tile_data                     absolute
     0000FE00  __OAMRAM                           
     0000FF00  _P1_REG                            
     0000FF00  __IO                               
     0000FF01  _SB_REG                            
     0000FF02  _SC_REG                            
     0000FF04  _DIV_REG                           
ASxxxx Linker V03.00 + NoICE + sdld,  page 20.
Hexadecimal  [32-Bits]

Area                                    Addr        Size        Decimal Bytes (Attributes)
--------------------------------        ----        ----        ------- ----- ------------
.  .ABS.                            00000000    00000000 =           0. bytes (ABS,CON)

      Value  Global                              Global Defined In Module
      -----  --------------------------------   ------------------------
     0000FF05  _TIMA_REG                          
     0000FF06  _TMA_REG                           
     0000FF07  _TAC_REG                           
     0000FF0F  _IF_REG                            
     0000FF10  _NR10_REG                          
     0000FF11  _NR11_REG                          
     0000FF12  _NR12_REG                          
     0000FF13  _NR13_REG                          
     0000FF14  _NR14_REG                          
     0000FF16  _NR21_REG                          
     0000FF17  _NR22_REG                          
     0000FF18  _NR23_REG                          
     0000FF19  _NR24_REG                          
     0000FF1A  _NR30_REG                          
     0000FF1B  _NR31_REG                          
     0000FF1C  _NR32_REG                          
     0000FF1D  _NR33_REG                          
     0000FF1E  _NR34_REG                          
     0000FF20  _NR41_REG                          
     0000FF21  _NR42_REG                          
     0000FF22  _NR43_REG                          
     0000FF23  _NR44_REG                          
     0000FF24  _NR50_REG                          
     0000FF25  _NR51_REG                          
     0000FF26  _NR52_REG                          
     0000FF30  _PCM_SAMPLE                        
     0000FF30  __AUD3WAVERAM                      
     0000FF40  _LCDC_REG                          
     0000FF41  _STAT_REG                          
     0000FF42  _SCY_REG                           
     0000FF43  _SCX_REG                           
     0000FF44  _LY_REG                            
     0000FF45  _LYC_REG                           
     0000FF46  _DMA_REG                           
     0000FF47  _BGP_REG                           
     0000FF48  _OBP0_REG                          
     0000FF49  _OBP1_REG                          
     0000FF4A  _WY_REG                            
     0000FF4B  _WX_REG                            
     0000FF4D  _KEY1_REG                          
     0000FF4F  _VBK_REG                           
     0000FF51  _HDMA1_REG                         
     0000FF52  _HDMA2_REG                         
     0000FF53  _HDMA3_REG                         
     0000FF54  _HDMA4_REG                         
     0000FF55  _HDMA5_REG                         
     0000FF56  _RP_REG                            
     0000FF68  _BCPS_REG                          
     0000FF69  _BCPD_REG                          
     0000FF6A  _OCPS_REG                          
     0000FF6B  _OCPD_REG                          
ASxxxx Linker V03.00 + NoICE + sdld,  page 21.
Hexadecimal  [32-Bits]

Area                                    Addr        Size        Decimal Bytes (Attributes)
--------------------------------        ----        ----        ------- ----- ------------
.  .ABS.                            00000000    00000000 =           0. bytes (ABS,CON)

      Value  Global                              Global Defined In Module
      -----  --------------------------------   ------------------------
     0000FF70  _SVBK_REG                          
     0000FF76  _PCM12_REG                         
     0000FF77  _PCM34_REG                         
     0000FF80  .refresh_OAM                    
     0000FF80  __HRAM                             
     0000FFFF  _IE_REG                            
     00014000  s__CODE_1                       
     00024000  s__CODE_2                       
     00034000  s__CODE_3                       
     00044000  s__CODE_4                       
     00054000  s__CODE_5                       
     00064000  s__CODE_6                       
     00074000  s__CODE_7                       
     00084000  s__CODE_8                       
     00094000  s__CODE_9                       
     000A4000  s__CODE_10                      
     000B4000  s__CODE_11                      
     000C4000  s__CODE_12                      
     000D4000  s__CODE_13                      
     000E4000  s__CODE_14                      

ASxxxx Linker V03.00 + NoICE + sdld,  page 22.
Hexadecimal  [32-Bits]

Area                                    Addr        Size        Decimal Bytes (Attributes)
--------------------------------        ----        ----        ------- ----- ------------
_CODE                               00000200    00000C03 =        3075. bytes (REL,CON)

      Value  Global                              Global Defined In Module
      -----  --------------------------------   ------------------------
     00000200  ___HandleCrash                     
     0000020A  _SIO_send_byte                     
     0000021D  _SIO_receive                       
     0000022E  _hide_hardware_sprites             OAM_utils
     0000025A  _SetTile                           
     00000269  _set_win_tile_xy                   
     0000026E  _set_bkg_tile_xy                   
     00000291  _GetWinAddr                        
     00000299  _GetBkgAddr                        
     000002A7  _state_init                        
     000002AC  _state_update                      
     000002CE  _ui_time_masks                     
     000002D6  _ui_print_shift_char               
     00000359  _ui_draw_frame_row                 
     00000362  .ui_draw_frame_row                 
     0000038B  _script_cmds                       vm_instructions
     00000529  _start_scene_x                     
     0000052B  _start_scene_y                     
     0000052D  _start_scene_dir                   
     0000052E  _start_scene                       
     00000531  _start_player_move_speed           
     00000532  _start_player_anim_tick            
     00000533  _ui_fonts                          
     00000536  _core_reset_hook                   main
     0000053E  _main                              main
     00000546  _state_start_fns                   
     00000558  _state_update_fns                  
     0000056A  _hUGE_init_banked                  hUGEDriver_obj
     0000056E  _hUGE_init                         hUGEDriver_obj
     00000579  _hUGE_mute_channel_banked          hUGEDriver_obj
     0000057D  _hUGE_mute_channel                 hUGEDriver_obj
     0000058A  hUGE_mute_channel                  hUGEDriver_obj
     000005A4  _hUGE_set_position_banked          hUGEDriver_obj
     000005A8  _hUGE_set_position                 hUGEDriver_obj
     000005B1  hUGE_init                          hUGEDriver_obj
     0000081E  hUGE_set_position                  hUGEDriver_obj
     000009BC  _hUGE_dosound                      hUGEDriver_obj
     000009BC  _hUGE_dosound_banked               hUGEDriver_obj
     00000CD0  _set_sprite_palette                CGB
     00000CD5  _set_bkg_palette                   CGB
     00000CD8  .set_palette                       CGB
     00000CF7  _set_sprite_palette_entry          CGB
     00000CFC  _set_bkg_palette_entry             CGB
     00000CFF  .set_palette_entry                 CGB
     00000D1B  .sgb_check                         
     00000D1B  _sgb_check                         
     00000D63  _sgb_transfer                      
     00000D68  .sgb_transfer                      
     00000DA9  ___move_metasprite                 Metasprites
     00000DE1  _cpu_slow                          CGB
ASxxxx Linker V03.00 + NoICE + sdld,  page 23.
Hexadecimal  [32-Bits]

Area                                    Addr        Size        Decimal Bytes (Attributes)
--------------------------------        ----        ----        ------- ----- ------------
_CODE                               00000200    00000C03 =        3075. bytes (REL,CON)

      Value  Global                              Global Defined In Module
      -----  --------------------------------   ------------------------
     00000DFC  _cpu_fast                          CGB
ASxxxx Linker V03.00 + NoICE + sdld,  page 24.
Hexadecimal  [32-Bits]

Area                                    Addr        Size        Decimal Bytes (Attributes)
--------------------------------        ----        ----        ------- ----- ------------
_HEADER0                            00000000    00000001 =           1. bytes (ABS,CON)

      Value  Global                              Global Defined In Module
      -----  --------------------------------   ------------------------
     00000020  .call_hl                           Runtime

ASxxxx Linker V03.00 + NoICE + sdld,  page 25.
Hexadecimal  [32-Bits]

Area                                    Addr        Size        Decimal Bytes (Attributes)
--------------------------------        ----        ----        ------- ----- ------------
_HEADER1                            00000000    00000005 =           5. bytes (ABS,CON)

      Value  Global                              Global Defined In Module
      -----  --------------------------------   ------------------------
     00000028  .MemsetSmall                       Runtime

ASxxxx Linker V03.00 + NoICE + sdld,  page 26.
Hexadecimal  [32-Bits]

Area                                    Addr        Size        Decimal Bytes (Attributes)
--------------------------------        ----        ----        ------- ----- ------------
_HEADER2                            00000000    00000007 =           7. bytes (ABS,CON)

      Value  Global                              Global Defined In Module
      -----  --------------------------------   ------------------------
     00000030  .MemcpySmall                       Runtime

ASxxxx Linker V03.00 + NoICE + sdld,  page 27.
Hexadecimal  [32-Bits]

Area                                    Addr        Size        Decimal Bytes (Attributes)
--------------------------------        ----        ----        ------- ----- ------------
_HEADER3                            00000000    00000008 =           8. bytes (ABS,CON)

      Value  Global                              Global Defined In Module
      -----  --------------------------------   ------------------------
ASxxxx Linker V03.00 + NoICE + sdld,  page 28.
Hexadecimal  [32-Bits]

Area                                    Addr        Size        Decimal Bytes (Attributes)
--------------------------------        ----        ----        ------- ----- ------------
_HEADER4                            00000000    0000004E =          78. bytes (ABS,CON)

      Value  Global                              Global Defined In Module
      -----  --------------------------------   ------------------------
     00000080  .int                               Runtime
     0000008F  _wait_int_handler                  Runtime
     0000009C  __standard_VBL_handler             Runtime
     000000AC  _refresh_OAM                       Runtime

ASxxxx Linker V03.00 + NoICE + sdld,  page 29.
Hexadecimal  [32-Bits]

Area                                    Addr        Size        Decimal Bytes (Attributes)
--------------------------------        ----        ----        ------- ----- ------------
_HEADER5                            00000000    00000002 =           2. bytes (ABS,CON)

      Value  Global                              Global Defined In Module
      -----  --------------------------------   ------------------------
ASxxxx Linker V03.00 + NoICE + sdld,  page 30.
Hexadecimal  [32-Bits]

Area                                    Addr        Size        Decimal Bytes (Attributes)
--------------------------------        ----        ----        ------- ----- ------------
_HEADER6                            00000000    00000030 =          48. bytes (ABS,CON)

      Value  Global                              Global Defined In Module
      -----  --------------------------------   ------------------------
ASxxxx Linker V03.00 + NoICE + sdld,  page 31.
Hexadecimal  [32-Bits]

Area                                    Addr        Size        Decimal Bytes (Attributes)
--------------------------------        ----        ----        ------- ----- ------------
_HEADER7                            00000000    00000006 =           6. bytes (ABS,CON)

      Value  Global                              Global Defined In Module
      -----  --------------------------------   ------------------------
ASxxxx Linker V03.00 + NoICE + sdld,  page 32.
Hexadecimal  [32-Bits]

Area                                    Addr        Size        Decimal Bytes (Attributes)
--------------------------------        ----        ----        ------- ----- ------------
_HEADER8                            00000000    00000003 =           3. bytes (ABS,CON)

      Value  Global                              Global Defined In Module
      -----  --------------------------------   ------------------------
ASxxxx Linker V03.00 + NoICE + sdld,  page 33.
Hexadecimal  [32-Bits]

Area                                    Addr        Size        Decimal Bytes (Attributes)
--------------------------------        ----        ----        ------- ----- ------------
_HEADER9                            00000000    00000001 =           1. bytes (ABS,CON)

      Value  Global                              Global Defined In Module
      -----  --------------------------------   ------------------------
ASxxxx Linker V03.00 + NoICE + sdld,  page 34.
Hexadecimal  [32-Bits]

Area                                    Addr        Size        Decimal Bytes (Attributes)
--------------------------------        ----        ----        ------- ----- ------------
_HEADERa                            00000000    00000001 =           1. bytes (ABS,CON)

      Value  Global                              Global Defined In Module
      -----  --------------------------------   ------------------------
ASxxxx Linker V03.00 + NoICE + sdld,  page 35.
Hexadecimal  [32-Bits]

Area                                    Addr        Size        Decimal Bytes (Attributes)
--------------------------------        ----        ----        ------- ----- ------------
_HEADERb                            00000000    00000001 =           1. bytes (ABS,CON)

      Value  Global                              Global Defined In Module
      -----  --------------------------------   ------------------------
ASxxxx Linker V03.00 + NoICE + sdld,  page 36.
Hexadecimal  [32-Bits]

Area                                    Addr        Size        Decimal Bytes (Attributes)
--------------------------------        ----        ----        ------- ----- ------------
_HEADERc                            00000000    00000002 =           2. bytes (ABS,CON)

      Value  Global                              Global Defined In Module
      -----  --------------------------------   ------------------------
ASxxxx Linker V03.00 + NoICE + sdld,  page 37.
Hexadecimal  [32-Bits]

Area                                    Addr        Size        Decimal Bytes (Attributes)
--------------------------------        ----        ----        ------- ----- ------------
_HEADERd                            00000000    00000001 =           1. bytes (ABS,CON)

      Value  Global                              Global Defined In Module
      -----  --------------------------------   ------------------------
ASxxxx Linker V03.00 + NoICE + sdld,  page 38.
Hexadecimal  [32-Bits]

Area                                    Addr        Size        Decimal Bytes (Attributes)
--------------------------------        ----        ----        ------- ----- ------------
_HEADERe                            00000000    00000001 =           1. bytes (ABS,CON)

      Value  Global                              Global Defined In Module
      -----  --------------------------------   ------------------------
ASxxxx Linker V03.00 + NoICE + sdld,  page 39.
Hexadecimal  [32-Bits]

Area                                    Addr        Size        Decimal Bytes (Attributes)
--------------------------------        ----        ----        ------- ----- ------------
_HEADERf                            00000000    00000002 =           2. bytes (ABS,CON)

      Value  Global                              Global Defined In Module
      -----  --------------------------------   ------------------------
ASxxxx Linker V03.00 + NoICE + sdld,  page 40.
Hexadecimal  [32-Bits]

Area                                    Addr        Size        Decimal Bytes (Attributes)
--------------------------------        ----        ----        ------- ----- ------------
_HEADER10                           00000000    00000082 =         130. bytes (ABS,CON)

      Value  Global                              Global Defined In Module
      -----  --------------------------------   ------------------------
     00000150  .reset                             Runtime
     00000150  _reset                             Runtime
     00000157  .code_start                        Runtime
     000001B7  _exit                              Runtime
     000001BB  _set_interrupts                    Runtime

ASxxxx Linker V03.00 + NoICE + sdld,  page 41.
Hexadecimal  [32-Bits]

Area                                    Addr        Size        Decimal Bytes (Attributes)
--------------------------------        ----        ----        ------- ----- ------------
_HEADER11                           00000000    00000001 =           1. bytes (ABS,CON)

      Value  Global                              Global Defined In Module
      -----  --------------------------------   ------------------------
ASxxxx Linker V03.00 + NoICE + sdld,  page 42.
Hexadecimal  [32-Bits]

Area                                    Addr        Size        Decimal Bytes (Attributes)
--------------------------------        ----        ----        ------- ----- ------------
_HOME                               00000E03    000027A6 =       10150. bytes (REL,CON)

      Value  Global                              Global Defined In Module
      -----  --------------------------------   ------------------------
     00000E03  .memset_simple                     Runtime
     00000E0C  .memcpy_simple                     Runtime
     00000E29  .remove_VBL                        Runtime
     00000E2C  .remove_int                        Runtime
     00000E49  .add_VBL                           Runtime
     00000E4C  .add_int                           Runtime
     00000E57  .wait_vbl_done                     Runtime
     00000E57  _wait_vbl_done                     Runtime
     00000E67  .display_off                       Runtime
     00000E67  _display_off                       Runtime
     00000E7F  _remove_VBL                        Runtime
     00000E8A  _add_VBL                           Runtime
     00000E95  _actors_update                     actor
     00001208  _SetBankedBkgData                  bankdata
     00001224  _SetBankedSpriteData               bankdata
     00001240  _SetBankedBkgTiles                 bankdata
     0000125C  _SetBankedWinTiles                 bankdata
     00001278  _ReadBankedFarPtr                  bankdata
     0000129F  _ReadBankedUWORD                   bankdata
     000012BB  _MemcpyBanked                      bankdata
     000012D7  _MemcpyVRAMBanked                  bankdata
     000012F3  _camera_update                     camera
     00001426  _load_animations                   data_manager
     00001485  _events_update                     events
     00001555  _timers_update                     events
     000015DD  _input_update                      input
     0000160C  .sio_ISR                           
     00001666  .timer_ISR                         
     0000167B  _simple_LCD_isr                    interrupts
     000016C6  _fullscreen_LCD_isr                interrupts
     000016F7  _VBL_isr                           interrupts
     00001734  _isqrt                             math
     0000178A  _sine_wave                         math
     0000188A  _dir_lookup                        math
     00001892  _dir_angle_lookup                  math
     00001896  _hUGETrackerRoutine                music_manager
     000018C2  _music_events_update               music_manager
     00001944  _music_play                        music_manager
     000019C4  _music_mute                        music_manager
     000019EC  _music_update                      music_manager
     00001A4C  _sound_stop                        music_manager
     00001A7D  _parallax_LCD_isr                  parallax
     00001ABA  _projectiles_update                projectiles
     00001E73  _projectiles_render                projectiles
     00001FE6  _sample_play_isr                   sample_player
     00002065  _scroll_load_pending_row           scroll
     000020F1  _scroll_load_row                   scroll
     0000216B  _scroll_load_col                   scroll
     000021D6  _scroll_load_pending_col           scroll
     00002267  _set_bkg_submap                    
ASxxxx Linker V03.00 + NoICE + sdld,  page 43.
Hexadecimal  [32-Bits]

Area                                    Addr        Size        Decimal Bytes (Attributes)
--------------------------------        ----        ----        ------- ----- ------------
_HOME                               00000E03    000027A6 =       10150. bytes (REL,CON)

      Value  Global                              Global Defined In Module
      -----  --------------------------------   ------------------------
     000022AA  _set_xy_win_submap                 
     000022D3  .set_xy_win_submap                 
     000022DC  .set_xy_bkg_submap                 
     000022EB  .set_xy_submap                     
     00002331  _on_SIO_receive                    sio
     00002372  _SIO_update                        sio
     000023D9  _ui_update                         ui
     00002499  _vm_sgb_transfer                   vm_sgb
     000024E7  _vm_load_text                      vm_ui
     0000273C  _vm_beginthread                    vm
     00002861  _vm_rpn                            vm
     00002F25  _vm_call_native                    vm
     00002F2F  _VM_STEP                           vm
     00002F99  _script_runner_update              vm
     00003113  _fill_win_rect                     
     00003125  _rand                              
     00003125  _randw                             
     00003150  _initrand                          
     00003152  .initrand                          
     0000315B  __mulsuchar                        mul
     00003165  __muluschar                        mul
     0000316F  __mulschar                         mul
     00003181  __muluchar                         mul
     0000318D  __mulint                           mul
     000031B3  _abs                               abs
     000031C2  _set_win_tiles                     
     000031D6  _set_tile_data                     
     000031DB  _set_bkg_data                      
     000031DB  _set_win_data                      
     000031E3  _set_sprite_data                   
     00003213  _reverse                           reverse
     00003247  ___call__banked                    far_ptr
     00003264  _to_far_ptr                        far_ptr
     0000329D  _add_LCD                           
     000032A8  .add_LCD                           
     000032AE  _remove_LCD                        
     000032B9  .remove_LCD                        
     000032BF  .fill_rect_wtt                     
     000032C8  .fill_rect_btt                     
     00003315  .copy_vram                         
     00003329  _get_data                          
     00003329  _set_data                          
     00003329  _vmemcpy                           
     0000333C  _fill_bkg_rect                     
     0000334E  .padup                             
     0000334E  _waitpadup                         
     0000335E  .jpad                              
     0000335E  _joypad                            
     00003386  _waitpad                           
     00003389  .wait_pad                          
     00003390  ___sdcc_call_hl                    call_hl
ASxxxx Linker V03.00 + NoICE + sdld,  page 44.
Hexadecimal  [32-Bits]

Area                                    Addr        Size        Decimal Bytes (Attributes)
--------------------------------        ----        ----        ------- ----- ------------
_HOME                               00000E03    000027A6 =       10150. bytes (REL,CON)

      Value  Global                              Global Defined In Module
      -----  --------------------------------   ------------------------
     00003391  ___memcpy                          memcpy
     00003391  _memcpy                            memcpy
     000033D4  _memset                            memset
     00003407  ___sdcc_bcall_ehl                  
     00003418  __divsuchar                        div
     00003425  __modsuchar                        div
     0000342F  __divuschar                        div
     00003441  __moduschar                        div
     00003451  __divschar                         div
     0000345D  __modschar                         div
     00003467  __divsint                          div
     00003478  __modsint                          div
     00003487  __divuchar                         div
     00003493  __moduchar                         div
     0000349D  __divuint                          div
     000034AE  __moduint                          div
     000034BD  .div8                              div
     000034BD  .mod8                              div
     000034C5  .div16                             div
     000034C5  .mod16                             div
     000034FB  .divu8                             div
     000034FB  .modu8                             div
     000034FE  .divu16                            div
     000034FE  .modu16                            div
     0000353F  _set_bkg_tiles                     
     00003553  .set_xy_wtt                        
     0000355C  .set_xy_btt                        
     0000356B  .set_xy_tt                         
ASxxxx Linker V03.00 + NoICE + sdld,  page 45.
Hexadecimal  [32-Bits]

Area                                    Addr        Size        Decimal Bytes (Attributes)
--------------------------------        ----        ----        ------- ----- ------------
_INITIALIZER                        000035A9    0000000E =          14. bytes (REL,CON)

      Value  Global                              Global Defined In Module
      -----  --------------------------------   ------------------------
ASxxxx Linker V03.00 + NoICE + sdld,  page 46.
Hexadecimal  [32-Bits]

Area                                    Addr        Size        Decimal Bytes (Attributes)
--------------------------------        ----        ----        ------- ----- ------------
_GSINIT                             000035B7    0000002D =          45. bytes (REL,CON)

      Value  Global                              Global Defined In Module
      -----  --------------------------------   ------------------------
     000035B7  gsinit                             Runtime

ASxxxx Linker V03.00 + NoICE + sdld,  page 47.
Hexadecimal  [32-Bits]

Area                                    Addr        Size        Decimal Bytes (Attributes)
--------------------------------        ----        ----        ------- ----- ------------
_GSFINAL                            000035E4    00000001 =           1. bytes (REL,CON)

      Value  Global                              Global Defined In Module
      -----  --------------------------------   ------------------------
ASxxxx Linker V03.00 + NoICE + sdld,  page 48.
Hexadecimal  [32-Bits]

Area                                    Addr        Size        Decimal Bytes (Attributes)
--------------------------------        ----        ----        ------- ----- ------------
_DATA                               0000C0A0    000018FB =        6395. bytes (REL,CON)

      Value  Global                              Global Defined In Module
      -----  --------------------------------   ------------------------
     0000C0A0  __cpu                              Runtime
     0000C0A1  __is_GBA                           Runtime
     0000C0A2  .mode                              Runtime
     0000C0A3  .sys_time                          Runtime
     0000C0A3  _sys_time                          Runtime
     0000C0A5  .int_0x40                          Runtime
     0000C0B9  _actors                            actor
     0000C4D3  _actors_active_head                actor
     0000C4D5  _actors_inactive_head              actor
     0000C4D7  _screen_x                          actor
     0000C4D8  _screen_y                          actor
     0000C4D9  _invalid                           actor
     0000C4DB  _player_moving                     actor
     0000C4DC  _player_iframes                    actor
     0000C4DD  _player_collision_actor            actor
     0000C4DF  _emote_actor                       actor
     0000C4E1  _emote_timer                       actor
     0000C4E2  _allocated_hardware_sprites        actor
     0000C4EA  _camera_x                          camera
     0000C4EC  _camera_y                          camera
     0000C4EE  _camera_offset_x                   camera
     0000C4EF  _camera_offset_y                   camera
     0000C4F0  _camera_deadzone_x                 camera
     0000C4F1  _camera_deadzone_y                 camera
     0000C4F2  _camera_settings                   camera
     0000C4F6  _current_scene                     data_manager
     0000C4F9  _image_bank                        data_manager
     0000C4FA  _image_ptr                         data_manager
     0000C4FC  _image_attr_bank                   data_manager
     0000C4FD  _image_attr_ptr                    data_manager
     0000C4FF  _collision_bank                    data_manager
     0000C500  _collision_ptr                     data_manager
     0000C502  _image_tile_width                  data_manager
     0000C503  _image_tile_height                 data_manager
     0000C504  _image_width                       data_manager
     0000C506  _image_height                      data_manager
     0000C508  _sprites_len                       data_manager
     0000C509  _actors_len                        data_manager
     0000C50A  _projectiles_len                   data_manager
     0000C50B  _player_sprite_len                 data_manager
     0000C50C  _scene_type                        data_manager
     0000C50D  _scene_LCD_type                    data_manager
     0000C50E  _scene_stack                       data_manager
     0000C54E  _scene_stack_ptr                   data_manager
     0000C553  _input_events                      events
     0000C57B  _input_slots                       events
     0000C583  _timer_events                      events
     0000C597  _timer_values                      events
     0000C59F  _fade_running                      fade_manager
     0000C5A0  _fade_frames_per_step              fade_manager
ASxxxx Linker V03.00 + NoICE + sdld,  page 49.
Hexadecimal  [32-Bits]

Area                                    Addr        Size        Decimal Bytes (Attributes)
--------------------------------        ----        ----        ------- ----- ------------
_DATA                               0000C0A0    000018FB =        6395. bytes (REL,CON)

      Value  Global                              Global Defined In Module
      -----  --------------------------------   ------------------------
     0000C5A1  _fade_timer                        fade_manager
     0000C5A4  _joypads                           input
     0000C5A9  _frame_joy                         input
     0000C5AA  _last_joy                          input
     0000C5AB  _recent_joy                        input
     0000C5AC  _SIO_status                        
     0000C5AD  _link_byte_sent                    
     0000C5AE  _link_next_mode                    
     0000C5AF  _save_blob_size                    load_save
     0000C5B1  _current_track                     music_manager
     0000C5B3  _tone_frames                       music_manager
     0000C5B4  _channel_mask                      music_manager
     0000C5B5  _sound_channel                     music_manager
     0000C5B6  _current_track_bank                music_manager
     0000C5B7  _music_stopped                     music_manager
     0000C5B8  _huge_initialized                  music_manager
     0000C5B9  _routine_queue                     music_manager
     0000C5BD  _routine_queue_head                music_manager
     0000C5BE  _routine_queue_tail                music_manager
     0000C5BF  _music_events                      music_manager
     0000C5D3  _DMG_palette                       palette
     0000C5D6  _SprPalette                        palette
     0000C616  _parallax_rows                     parallax
     0000C628  _parallax_row                      parallax
     0000C62A  _projectiles                       projectiles
     0000C6E3  _projectile_defs                   projectiles
     0000C756  _projectiles_active_head           projectiles
     0000C758  _projectiles_inactive_head         projectiles
     0000C75F  _scroll_x                          scroll
     0000C761  _scroll_y                          scroll
     0000C763  _draw_scroll_x                     scroll
     0000C765  _draw_scroll_y                     scroll
     0000C767  _scroll_x_max                      scroll
     0000C769  _scroll_y_max                      scroll
     0000C76B  _scroll_offset_x                   scroll
     0000C76C  _scroll_offset_y                   scroll
     0000C76D  _pending_h_x                       scroll
     0000C76E  _pending_h_y                       scroll
     0000C76F  _pending_h_i                       scroll
     0000C770  _pending_w_x                       scroll
     0000C771  _pending_w_y                       scroll
     0000C772  _pending_w_i                       scroll
     0000C773  _current_row                       scroll
     0000C775  _new_row                           scroll
     0000C777  _current_col                       scroll
     0000C779  _new_col                           scroll
     0000C77B  .image_tile_width                  
     0000C77C  _link_operation_mode               sio
     0000C77D  _link_packet                       sio
     0000C79D  _link_packet_len                   sio
     0000C79E  _link_packet_ptr                   sio
ASxxxx Linker V03.00 + NoICE + sdld,  page 50.
Hexadecimal  [32-Bits]

Area                                    Addr        Size        Decimal Bytes (Attributes)
--------------------------------        ----        ----        ------- ----- ------------
_DATA                               0000C0A0    000018FB =        6395. bytes (REL,CON)

      Value  Global                              Global Defined In Module
      -----  --------------------------------   ------------------------
     0000C7A0  _link_packet_received              sio
     0000C7A1  _link_packet_snd_len               sio
     0000C7A2  _link_packet_snd_ptr               sio
     0000C7A4  _link_packet_sent                  sio
     0000C7A5  __is_CGB                           system
     0000C7A6  __is_SGB                           system
     0000C7A7  _triggers                          trigger
     0000C89F  _last_trigger_tx                   trigger
     0000C8A0  _last_trigger_ty                   trigger
     0000C8A1  _last_trigger                      trigger
     0000C8A2  _win_pos_x                         ui
     0000C8A3  _win_dest_pos_x                    ui
     0000C8A4  _win_pos_y                         ui
     0000C8A5  _win_dest_pos_y                    ui
     0000C8A6  _win_speed                         ui
     0000C8A7  _text_drawn                        ui
     0000C8A8  _current_text_speed                ui
     0000C8A9  _text_wait                         ui
     0000C8AA  _text_in_speed                     ui
     0000C8AB  _text_out_speed                    ui
     0000C8AC  _text_draw_speed                   ui
     0000C8AD  _text_ff_joypad                    ui
     0000C8AE  _text_ff                           ui
     0000C8AF  _text_bkg_fill                     ui
     0000C8B0  _ui_text_data                      ui
     0000C9BA  _vwf_current_mask                  ui
     0000C9BB  _vwf_current_rotate                ui
     0000C9BC  _vwf_inverse_map                   ui
     0000C9BD  _vwf_direction                     ui
     0000C9BE  _vwf_current_font_desc             ui
     0000C9C6  _vwf_current_font_bank             ui
     0000C9C7  _vwf_current_font_idx              ui
     0000C9C8  _text_render_base_addr             ui
     0000C9CA  _text_scroll_addr                  ui
     0000C9CC  _text_scroll_width                 ui
     0000C9CD  _text_scroll_height                ui
     0000C9CE  _text_scroll_fill                  ui
     0000C9D4  __itoa_fmt_len                     vm_ui_a
     0000C9D5  .itoa_fmt_buf                      vm_ui_a
     0000C9D8  _CTXS                              vm
     0000CB08  _first_ctx                         vm
     0000CB0A  _free_ctxs                         vm
     0000CB0C  _vm_lock_state                     vm
     0000CB0D  _vm_loaded_state                   vm
     0000CB0E  _vm_exception_code                 vm
     0000CB0F  _vm_exception_params_length        vm
     0000CB10  _vm_exception_params_bank          vm
     0000CB11  _vm_exception_params_offset        vm
     0000CB13  _script_memory                     vm
     0000D91B  _grounded                          platform
     0000D91C  _on_ladder                         platform
ASxxxx Linker V03.00 + NoICE + sdld,  page 51.
Hexadecimal  [32-Bits]

Area                                    Addr        Size        Decimal Bytes (Attributes)
--------------------------------        ----        ----        ------- ----- ------------
_DATA                               0000C0A0    000018FB =        6395. bytes (REL,CON)

      Value  Global                              Global Defined In Module
      -----  --------------------------------   ------------------------
     0000D91D  _pl_vel_x                          platform
     0000D91F  _pl_vel_y                          platform
     0000D921  _plat_min_vel                      platform
     0000D923  _plat_walk_vel                     platform
     0000D925  _plat_climb_vel                    platform
     0000D927  _plat_run_vel                      platform
     0000D929  _plat_walk_acc                     platform
     0000D92B  _plat_run_acc                      platform
     0000D92D  _plat_dec                          platform
     0000D92F  _plat_jump_vel                     platform
     0000D931  _plat_grav                         platform
     0000D933  _plat_hold_grav                    platform
     0000D935  _plat_max_fall_vel                 platform
     0000D937  _shooter_reached_end               shmup
     0000D938  _shooter_dest                      shmup
     0000D93A  _shooter_direction                 shmup
     0000D93B  _topdown_grid                      topdown
     0000D961  __current_ch3_wave                 hUGEDriver_obj
     0000D961  _hUGE_current_wave                 hUGEDriver_obj
     0000D982  .randhi                            
     0000D983  .randlo                            
     0000D984  ___call_banked_addr                far_ptr
     0000D984  ___call_banked_ptr                 far_ptr
     0000D986  ___call_banked_bank                far_ptr
     0000D988  .int_0x48                          
     0000D998  ___current_metasprite              Metasprites
     0000D99A  ___current_base_tile               Metasprites

ASxxxx Linker V03.00 + NoICE + sdld,  page 52.
Hexadecimal  [32-Bits]

Area                                    Addr        Size        Decimal Bytes (Attributes)
--------------------------------        ----        ----        ------- ----- ------------
_INITIALIZED                        0000D99B    0000000E =          14. bytes (REL,CON)

      Value  Global                              Global Defined In Module
      -----  --------------------------------   ------------------------
     0000D99B  _fade_style                        fade_manager
     0000D99C  _game_time                         game_time
     0000D99D  _hide_sprites                      interrupts
     0000D99E  _ISR_counter                       music_manager
     0000D99F  _play_bank                         sample_player
     0000D9A0  _play_sample                       sample_player
     0000D9A2  _play_length                       sample_player
     0000D9A4  _triggers_len                      trigger
     0000D9A5  _exchange_state                    vm_sio
     0000D9A6  _last_hit_trigger                  pointnclick
     0000D9A7  _shooter_scroll_speed              shmup
     0000D9A8  ___render_shadow_OAM               Metasprites
ASxxxx Linker V03.00 + NoICE + sdld,  page 53.
Hexadecimal  [32-Bits]

Area                                    Addr        Size        Decimal Bytes (Attributes)
--------------------------------        ----        ----        ------- ----- ------------
_HRAM12                             00000000    00000003 =           3. bytes (ABS,CON)

      Value  Global                              Global Defined In Module
      -----  --------------------------------   ------------------------
     0000FF90  __current_bank                     Runtime
     0000FF92  __shadow_OAM_base                  Runtime

ASxxxx Linker V03.00 + NoICE + sdld,  page 54.
Hexadecimal  [32-Bits]

Area                                    Addr        Size        Decimal Bytes (Attributes)
--------------------------------        ----        ----        ------- ----- ------------
_CODE_1                             00014000    000029A6 =       10662. bytes (REL,CON)

      Value  Global                              Global Defined In Module
      -----  --------------------------------   ------------------------
     00014000  _actors_init                       actor
     00014034  _emote_offsets                     actor
     00014043  _emote_metasprite                  actor
     0001404F  _player_init                       actor
     00014062  _deactivate_actor                  actor
     00014169  _activate_actor                    actor
     00014294  _activate_actors_in_row            actor
     0001438B  _activate_actors_in_col            actor
     000144DC  _actor_set_frames                  actor
     00014530  _actor_set_frame_offset            actor
     0001456D  _actor_get_frame_offset            actor
     00014580  _actor_set_anim_idle               actor
     000145AE  _actor_set_anim_moving             actor
     000145DF  _actor_set_dir                     actor
     00014644  _actor_at_tile                     actor
     00014719  _actor_in_front_of_player          actor
     00014800  _actor_overlapping_player          actor
     00014A98  _actor_overlapping_bb              actor
     00014CB6  _actors_handle_player_collision    actor
     00014D41  _check_collision_in_direction      actor
     00015480  _camera_init                       camera
     0001549E  _camera_reset                      camera
     000154AE  _remove_LCD_ISRs                   interrupts
     000154CF  _parallax_init                     parallax
     000154F3  _scroll_init                       scroll
     0001551D  _scroll_reset                      scroll
     0001553D  _scroll_update                     scroll
     00015654  _scroll_viewport                   scroll
     00015AE8  _scroll_repaint                    scroll
     00015B46  _scroll_render_rows                scroll
     00015BCE  _scroll_queue_row                  scroll
     00015BF3  _scroll_queue_col                  scroll
     00015C3F  _ui_swap_tiles                     
     00015C89  _ui_print_make_mask_lr             
     00015CA5  _ui_print_make_mask_rl             
     00015CC1  _ui_init                           ui
     00015D7A  _ui_load_tiles                     ui
     00015DD1  _ui_draw_frame                     ui
     00015E62  _ui_print_reset                    ui
     00015EB8  _ui_print_render                   ui
     00016159  _ui_draw_text_buffer_char          ui
     00016632  _ui_run_menu                       ui
     000168BC  _ui_run_modal                      ui

ASxxxx Linker V03.00 + NoICE + sdld,  page 55.
Hexadecimal  [32-Bits]

Area                                    Addr        Size        Decimal Bytes (Attributes)
--------------------------------        ----        ----        ------- ----- ------------
_CODE_14                            000E4000    000026BD =        9917. bytes (REL,CON)

      Value  Global                              Global Defined In Module
      -----  --------------------------------   ------------------------
     000E4000  _bootstrap_script                  
     000E400B  ___func_background_0               background_0
     000E400B  _background_0                      background_0
     000E4019  ___func_background_1               background_1
     000E4019  _background_1                      background_1
     000E4027  ___func_background_10              background_10
     000E4027  _background_10                     background_10
     000E4035  ___func_background_11              background_11
     000E4035  _background_11                     background_11
     000E4043  ___func_background_12              background_12
     000E4043  _background_12                     background_12
     000E4051  ___func_background_13              background_13
     000E4051  _background_13                     background_13
     000E405F  ___func_background_14              background_14
     000E405F  _background_14                     background_14
     000E406D  ___func_background_15              background_15
     000E406D  _background_15                     background_15
     000E407B  ___func_background_16              background_16
     000E407B  _background_16                     background_16
     000E4089  ___func_background_17              background_17
     000E4089  _background_17                     background_17
     000E4097  ___func_background_18              background_18
     000E4097  _background_18                     background_18
     000E40A5  ___func_background_19              background_19
     000E40A5  _background_19                     background_19
     000E40B3  ___func_background_2               background_2
     000E40B3  _background_2                      background_2
     000E40C1  ___func_background_20              background_20
     000E40C1  _background_20                     background_20
     000E40CF  ___func_background_21              background_21
     000E40CF  _background_21                     background_21
     000E40DD  ___func_background_22              background_22
     000E40DD  _background_22                     background_22
     000E40EB  ___func_background_23              background_23
     000E40EB  _background_23                     background_23
     000E40F9  ___func_background_24              background_24
     000E40F9  _background_24                     background_24
     000E4107  ___func_background_25              background_25
     000E4107  _background_25                     background_25
     000E4115  ___func_background_26              background_26
     000E4115  _background_26                     background_26
     000E4123  ___func_background_27              background_27
     000E4123  _background_27                     background_27
     000E4131  ___func_background_28              background_28
     000E4131  _background_28                     background_28
     000E413F  ___func_background_29              background_29
     000E413F  _background_29                     background_29
     000E414D  ___func_background_3               background_3
     000E414D  _background_3                      background_3
     000E415B  ___func_background_30              background_30
ASxxxx Linker V03.00 + NoICE + sdld,  page 56.
Hexadecimal  [32-Bits]

Area                                    Addr        Size        Decimal Bytes (Attributes)
--------------------------------        ----        ----        ------- ----- ------------
_CODE_14                            000E4000    000026BD =        9917. bytes (REL,CON)

      Value  Global                              Global Defined In Module
      -----  --------------------------------   ------------------------
     000E415B  _background_30                     background_30
     000E4169  ___func_background_31              background_31
     000E4169  _background_31                     background_31
     000E4177  ___func_background_32              background_32
     000E4177  _background_32                     background_32
     000E4185  ___func_background_4               background_4
     000E4185  _background_4                      background_4
     000E4193  ___func_background_5               background_5
     000E4193  _background_5                      background_5
     000E41A1  ___func_background_6               background_6
     000E41A1  _background_6                      background_6
     000E41AF  ___func_background_7               background_7
     000E41AF  _background_7                      background_7
     000E41BD  ___func_background_8               background_8
     000E41BD  _background_8                      background_8
     000E41CB  ___func_background_9               background_9
     000E41CB  _background_9                      background_9
     000E41D9  ___func_cursor_image               cursor_image
     000E41D9  _cursor_image                      cursor_image
     000E41E9  ___func_palette_0                  palette_0
     000E41E9  _palette_0                         palette_0
     000E422C  ___func_palette_1                  palette_1
     000E422C  _palette_1                         palette_1
     000E426F  ___func_palette_2                  palette_2
     000E426F  _palette_2                         palette_2
     000E42B2  ___func_palette_3                  palette_3
     000E42B2  _palette_3                         palette_3
     000E42F5  ___func_palette_4                  palette_4
     000E42F5  _palette_4                         palette_4
     000E4338  ___func_scene_0_projectiles        scene_0_projectiles
     000E4338  _scene_0_projectiles               scene_0_projectiles
     000E4366  ___func_scene_0_sprites            scene_0_sprites
     000E4366  _scene_0_sprites                   scene_0_sprites
     000E437B  ___func_scene_1_actors             scene_1_actors
     000E437B  _scene_1_actors                    scene_1_actors
     000E43AD  ___func_scene_1_projectiles        scene_1_projectiles
     000E43AD  _scene_1_projectiles               scene_1_projectiles
     000E43C4  ___func_scene_1_sprites            scene_1_sprites
     000E43C4  _scene_1_sprites                   scene_1_sprites
     000E43CA  ___func_scene_1                    scene_1
     000E43CA  _scene_1                           scene_1
     000E4404  ___func_scene_10_projectiles       scene_10_projectiles
     000E4404  _scene_10_projectiles              scene_10_projectiles
     000E4432  ___func_scene_10_sprites           scene_10_sprites
     000E4432  _scene_10_sprites                  scene_10_sprites
     000E4444  ___func_scene_10_triggers          scene_10_triggers
     000E4444  _scene_10_triggers                 scene_10_triggers
     000E4454  ___func_scene_10                   scene_10
     000E4454  _scene_10                          scene_10
     000E448E  ___func_scene_11_projectiles       scene_11_projectiles
     000E448E  _scene_11_projectiles              scene_11_projectiles
ASxxxx Linker V03.00 + NoICE + sdld,  page 57.
Hexadecimal  [32-Bits]

Area                                    Addr        Size        Decimal Bytes (Attributes)
--------------------------------        ----        ----        ------- ----- ------------
_CODE_14                            000E4000    000026BD =        9917. bytes (REL,CON)

      Value  Global                              Global Defined In Module
      -----  --------------------------------   ------------------------
     000E44BC  ___func_scene_11_sprites           scene_11_sprites
     000E44BC  _scene_11_sprites                  scene_11_sprites
     000E44CB  ___func_scene_11_triggers          scene_11_triggers
     000E44CB  _scene_11_triggers                 scene_11_triggers
     000E44D3  ___func_scene_11                   scene_11
     000E44D3  _scene_11                          scene_11
     000E450D  ___func_scene_12_sprites           scene_12_sprites
     000E450D  _scene_12_sprites                  scene_12_sprites
     000E451F  ___func_scene_12_triggers          scene_12_triggers
     000E451F  _scene_12_triggers                 scene_12_triggers
     000E4527  ___func_scene_12                   scene_12
     000E4527  _scene_12                          scene_12
     000E4561  ___func_scene_13_projectiles       scene_13_projectiles
     000E4561  _scene_13_projectiles              scene_13_projectiles
     000E45A6  ___func_scene_13_sprites           scene_13_sprites
     000E45A6  _scene_13_sprites                  scene_13_sprites
     000E45BE  ___func_scene_13_triggers          scene_13_triggers
     000E45BE  _scene_13_triggers                 scene_13_triggers
     000E45C6  ___func_scene_13                   scene_13
     000E45C6  _scene_13                          scene_13
     000E4600  ___func_scene_14                   scene_14
     000E4600  _scene_14                          scene_14
     000E463A  ___func_scene_15                   scene_15
     000E463A  _scene_15                          scene_15
     000E4674  ___func_scene_16_projectiles       scene_16_projectiles
     000E4674  _scene_16_projectiles              scene_16_projectiles
     000E46A2  ___func_scene_16_sprites           scene_16_sprites
     000E46A2  _scene_16_sprites                  scene_16_sprites
     000E46AE  ___func_scene_16_triggers          scene_16_triggers
     000E46AE  _scene_16_triggers                 scene_16_triggers
     000E46B6  ___func_scene_16                   scene_16
     000E46B6  _scene_16                          scene_16
     000E46F0  ___func_scene_17_projectiles       scene_17_projectiles
     000E46F0  _scene_17_projectiles              scene_17_projectiles
     000E471E  ___func_scene_17_sprites           scene_17_sprites
     000E471E  _scene_17_sprites                  scene_17_sprites
     000E4733  ___func_scene_17_triggers          scene_17_triggers
     000E4733  _scene_17_triggers                 scene_17_triggers
     000E473B  ___func_scene_17                   scene_17
     000E473B  _scene_17                          scene_17
     000E4775  ___func_scene_18_projectiles       scene_18_projectiles
     000E4775  _scene_18_projectiles              scene_18_projectiles
     000E47BA  ___func_scene_18_sprites           scene_18_sprites
     000E47BA  _scene_18_sprites                  scene_18_sprites
     000E47D5  ___func_scene_18_triggers          scene_18_triggers
     000E47D5  _scene_18_triggers                 scene_18_triggers
     000E47DD  ___func_scene_18                   scene_18
     000E47DD  _scene_18                          scene_18
     000E4817  ___func_scene_19_projectiles       scene_19_projectiles
     000E4817  _scene_19_projectiles              scene_19_projectiles
     000E4845  ___func_scene_19_sprites           scene_19_sprites
ASxxxx Linker V03.00 + NoICE + sdld,  page 58.
Hexadecimal  [32-Bits]

Area                                    Addr        Size        Decimal Bytes (Attributes)
--------------------------------        ----        ----        ------- ----- ------------
_CODE_14                            000E4000    000026BD =        9917. bytes (REL,CON)

      Value  Global                              Global Defined In Module
      -----  --------------------------------   ------------------------
     000E4845  _scene_19_sprites                  scene_19_sprites
     000E485A  ___func_scene_19_triggers          scene_19_triggers
     000E485A  _scene_19_triggers                 scene_19_triggers
     000E4862  ___func_scene_19                   scene_19
     000E4862  _scene_19                          scene_19
     000E489C  ___func_scene_2                    scene_2
     000E489C  _scene_2                           scene_2
     000E48D6  ___func_scene_20_projectiles       scene_20_projectiles
     000E48D6  _scene_20_projectiles              scene_20_projectiles
     000E491B  ___func_scene_20_sprites           scene_20_sprites
     000E491B  _scene_20_sprites                  scene_20_sprites
     000E4939  ___func_scene_20_triggers          scene_20_triggers
     000E4939  _scene_20_triggers                 scene_20_triggers
     000E4941  ___func_scene_20                   scene_20
     000E4941  _scene_20                          scene_20
     000E497B  ___func_scene_21_projectiles       scene_21_projectiles
     000E497B  _scene_21_projectiles              scene_21_projectiles
     000E49A9  ___func_scene_21_sprites           scene_21_sprites
     000E49A9  _scene_21_sprites                  scene_21_sprites
     000E49BE  ___func_scene_21_triggers          scene_21_triggers
     000E49BE  _scene_21_triggers                 scene_21_triggers
     000E49C6  ___func_scene_21                   scene_21
     000E49C6  _scene_21                          scene_21
     000E4A00  ___func_scene_22_projectiles       scene_22_projectiles
     000E4A00  _scene_22_projectiles              scene_22_projectiles
     000E4A45  ___func_scene_22_sprites           scene_22_sprites
     000E4A45  _scene_22_sprites                  scene_22_sprites
     000E4A5D  ___func_scene_22_triggers          scene_22_triggers
     000E4A5D  _scene_22_triggers                 scene_22_triggers
     000E4A65  ___func_scene_22                   scene_22
     000E4A65  _scene_22                          scene_22
     000E4A9F  ___func_scene_23_projectiles       scene_23_projectiles
     000E4A9F  _scene_23_projectiles              scene_23_projectiles
     000E4AE4  ___func_scene_23_sprites           scene_23_sprites
     000E4AE4  _scene_23_sprites                  scene_23_sprites
     000E4AFF  ___func_scene_23_triggers          scene_23_triggers
     000E4AFF  _scene_23_triggers                 scene_23_triggers
     000E4B07  ___func_scene_23                   scene_23
     000E4B07  _scene_23                          scene_23
     000E4B41  ___func_scene_24_projectiles       scene_24_projectiles
     000E4B41  _scene_24_projectiles              scene_24_projectiles
     000E4B6F  ___func_scene_24_sprites           scene_24_sprites
     000E4B6F  _scene_24_sprites                  scene_24_sprites
     000E4B84  ___func_scene_24_triggers          scene_24_triggers
     000E4B84  _scene_24_triggers                 scene_24_triggers
     000E4B8C  ___func_scene_24                   scene_24
     000E4B8C  _scene_24                          scene_24
     000E4BC6  ___func_scene_25_projectiles       scene_25_projectiles
     000E4BC6  _scene_25_projectiles              scene_25_projectiles
     000E4BF4  ___func_scene_25_sprites           scene_25_sprites
     000E4BF4  _scene_25_sprites                  scene_25_sprites
ASxxxx Linker V03.00 + NoICE + sdld,  page 59.
Hexadecimal  [32-Bits]

Area                                    Addr        Size        Decimal Bytes (Attributes)
--------------------------------        ----        ----        ------- ----- ------------
_CODE_14                            000E4000    000026BD =        9917. bytes (REL,CON)

      Value  Global                              Global Defined In Module
      -----  --------------------------------   ------------------------
     000E4C06  ___func_scene_25_triggers          scene_25_triggers
     000E4C06  _scene_25_triggers                 scene_25_triggers
     000E4C16  ___func_scene_25                   scene_25
     000E4C16  _scene_25                          scene_25
     000E4C50  ___func_scene_26_projectiles       scene_26_projectiles
     000E4C50  _scene_26_projectiles              scene_26_projectiles
     000E4C7E  ___func_scene_26_sprites           scene_26_sprites
     000E4C7E  _scene_26_sprites                  scene_26_sprites
     000E4C96  ___func_scene_26_triggers          scene_26_triggers
     000E4C96  _scene_26_triggers                 scene_26_triggers
     000E4C9E  ___func_scene_26                   scene_26
     000E4C9E  _scene_26                          scene_26
     000E4CD8  ___func_scene_27_projectiles       scene_27_projectiles
     000E4CD8  _scene_27_projectiles              scene_27_projectiles
     000E4D1D  ___func_scene_27_sprites           scene_27_sprites
     000E4D1D  _scene_27_sprites                  scene_27_sprites
     000E4D3E  ___func_scene_27_triggers          scene_27_triggers
     000E4D3E  _scene_27_triggers                 scene_27_triggers
     000E4D46  ___func_scene_27                   scene_27
     000E4D46  _scene_27                          scene_27
     000E4D80  ___func_scene_28_projectiles       scene_28_projectiles
     000E4D80  _scene_28_projectiles              scene_28_projectiles
     000E4DC5  ___func_scene_28_sprites           scene_28_sprites
     000E4DC5  _scene_28_sprites                  scene_28_sprites
     000E4DE3  ___func_scene_28_triggers          scene_28_triggers
     000E4DE3  _scene_28_triggers                 scene_28_triggers
     000E4DEB  ___func_scene_28                   scene_28
     000E4DEB  _scene_28                          scene_28
     000E4E25  ___func_scene_29_projectiles       scene_29_projectiles
     000E4E25  _scene_29_projectiles              scene_29_projectiles
     000E4E6A  ___func_scene_29_sprites           scene_29_sprites
     000E4E6A  _scene_29_sprites                  scene_29_sprites
     000E4E88  ___func_scene_29_triggers          scene_29_triggers
     000E4E88  _scene_29_triggers                 scene_29_triggers
     000E4E90  ___func_scene_29                   scene_29
     000E4E90  _scene_29                          scene_29
     000E4ECA  ___func_scene_3_projectiles        scene_3_projectiles
     000E4ECA  _scene_3_projectiles               scene_3_projectiles
     000E4F0F  ___func_scene_3_sprites            scene_3_sprites
     000E4F0F  _scene_3_sprites                   scene_3_sprites
     000E4F27  ___func_scene_3_triggers           scene_3_triggers
     000E4F27  _scene_3_triggers                  scene_3_triggers
     000E4F2F  ___func_scene_3                    scene_3
     000E4F2F  _scene_3                           scene_3
     000E4F69  ___func_scene_30_projectiles       scene_30_projectiles
     000E4F69  _scene_30_projectiles              scene_30_projectiles
     000E4FAE  ___func_scene_30_sprites           scene_30_sprites
     000E4FAE  _scene_30_sprites                  scene_30_sprites
     000E4FC9  ___func_scene_30_triggers          scene_30_triggers
     000E4FC9  _scene_30_triggers                 scene_30_triggers
     000E4FD9  ___func_scene_30                   scene_30
ASxxxx Linker V03.00 + NoICE + sdld,  page 60.
Hexadecimal  [32-Bits]

Area                                    Addr        Size        Decimal Bytes (Attributes)
--------------------------------        ----        ----        ------- ----- ------------
_CODE_14                            000E4000    000026BD =        9917. bytes (REL,CON)

      Value  Global                              Global Defined In Module
      -----  --------------------------------   ------------------------
     000E4FD9  _scene_30                          scene_30
     000E5013  ___func_scene_31_projectiles       scene_31_projectiles
     000E5013  _scene_31_projectiles              scene_31_projectiles
     000E5041  ___func_scene_31_sprites           scene_31_sprites
     000E5041  _scene_31_sprites                  scene_31_sprites
     000E5059  ___func_scene_31_triggers          scene_31_triggers
     000E5059  _scene_31_triggers                 scene_31_triggers
     000E5061  ___func_scene_31                   scene_31
     000E5061  _scene_31                          scene_31
     000E509B  ___func_scene_32_projectiles       scene_32_projectiles
     000E509B  _scene_32_projectiles              scene_32_projectiles
     000E50C9  ___func_scene_32_sprites           scene_32_sprites
     000E50C9  _scene_32_sprites                  scene_32_sprites
     000E50D5  ___func_scene_32_triggers          scene_32_triggers
     000E50D5  _scene_32_triggers                 scene_32_triggers
     000E50DD  ___func_scene_32                   scene_32
     000E50DD  _scene_32                          scene_32
     000E5117  ___func_scene_4_projectiles        scene_4_projectiles
     000E5117  _scene_4_projectiles               scene_4_projectiles
     000E5145  ___func_scene_4_sprites            scene_4_sprites
     000E5145  _scene_4_sprites                   scene_4_sprites
     000E5154  ___func_scene_4_triggers           scene_4_triggers
     000E5154  _scene_4_triggers                  scene_4_triggers
     000E5164  ___func_scene_4                    scene_4
     000E5164  _scene_4                           scene_4
     000E519E  ___func_scene_5_projectiles        scene_5_projectiles
     000E519E  _scene_5_projectiles               scene_5_projectiles
     000E51E3  ___func_scene_5_sprites            scene_5_sprites
     000E51E3  _scene_5_sprites                   scene_5_sprites
     000E51F5  ___func_scene_5_triggers           scene_5_triggers
     000E51F5  _scene_5_triggers                  scene_5_triggers
     000E51FD  ___func_scene_5                    scene_5
     000E51FD  _scene_5                           scene_5
     000E5237  ___func_scene_6_projectiles        scene_6_projectiles
     000E5237  _scene_6_projectiles               scene_6_projectiles
     000E5265  ___func_scene_6_sprites            scene_6_sprites
     000E5265  _scene_6_sprites                   scene_6_sprites
     000E527A  ___func_scene_6_triggers           scene_6_triggers
     000E527A  _scene_6_triggers                  scene_6_triggers
     000E5282  ___func_scene_6                    scene_6
     000E5282  _scene_6                           scene_6
     000E52BC  ___func_scene_7_projectiles        scene_7_projectiles
     000E52BC  _scene_7_projectiles               scene_7_projectiles
     000E52EA  ___func_scene_7_sprites            scene_7_sprites
     000E52EA  _scene_7_sprites                   scene_7_sprites
     000E5302  ___func_scene_7_triggers           scene_7_triggers
     000E5302  _scene_7_triggers                  scene_7_triggers
     000E530A  ___func_scene_7                    scene_7
     000E530A  _scene_7                           scene_7
     000E5344  ___func_scene_8_projectiles        scene_8_projectiles
     000E5344  _scene_8_projectiles               scene_8_projectiles
ASxxxx Linker V03.00 + NoICE + sdld,  page 61.
Hexadecimal  [32-Bits]

Area                                    Addr        Size        Decimal Bytes (Attributes)
--------------------------------        ----        ----        ------- ----- ------------
_CODE_14                            000E4000    000026BD =        9917. bytes (REL,CON)

      Value  Global                              Global Defined In Module
      -----  --------------------------------   ------------------------
     000E5372  ___func_scene_8_sprites            scene_8_sprites
     000E5372  _scene_8_sprites                   scene_8_sprites
     000E5381  ___func_scene_8_triggers           scene_8_triggers
     000E5381  _scene_8_triggers                  scene_8_triggers
     000E5389  ___func_scene_8                    scene_8
     000E5389  _scene_8                           scene_8
     000E53C3  ___func_scene_9_projectiles        scene_9_projectiles
     000E53C3  _scene_9_projectiles               scene_9_projectiles
     000E53F1  ___func_scene_9_sprites            scene_9_sprites
     000E53F1  _scene_9_sprites                   scene_9_sprites
     000E5406  ___func_scene_9                    scene_9
     000E5406  _scene_9                           scene_9
     000E5440  _script_init_custominputs          script_init_custominputs
     000E5450  _script_init_player_jumpsfx        script_init_player_jumpsfx
     000E545A  _script_init_resetvariables        script_init_resetvariables
     000E5498  _script_input_0                    script_input_0
     000E549D  _script_input_4                    script_input_4
     000E54D1  _script_s0_p_hit1                  script_s0_p_hit1
     000E54F9  _script_s10_p_hit1                 script_s10_p_hit1
     000E5521  _script_s10a12_interact            script_s10a12_interact
     000E5543  _script_s10a8_interact             script_s10a8_interact
     000E5565  _script_s10a9_interact             script_s10a9_interact
     000E5587  _script_s10t0_interact             script_s10t0_interact
     000E55B7  _script_s10t1_interact             script_s10t1_interact
     000E55E7  _script_s11_p_hit1                 script_s11_p_hit1
     000E560F  _script_s11t0_interact             script_s11t0_interact
     000E563F  _script_s12_p_hit1                 script_s12_p_hit1
     000E5667  _script_s12t0_interact             script_s12t0_interact
     000E5697  _script_s13_p_hit1                 script_s13_p_hit1
     000E56BF  _script_s13a0_interact             script_s13a0_interact
     000E56E1  _script_s13a1_interact             script_s13a1_interact
     000E5703  _script_s13a2_interact             script_s13a2_interact
     000E5725  _script_s13a3_interact             script_s13a3_interact
     000E5747  _script_s16t0_interact             script_s16t0_interact
     000E5777  _script_s17_p_hit1                 script_s17_p_hit1
     000E579F  _script_s17a5_interact             script_s17a5_interact
     000E57C1  _script_s18_p_hit1                 script_s18_p_hit1
     000E57E9  _script_s18a7_interact             script_s18a7_interact
     000E580B  _script_s18a8_interact             script_s18a8_interact
     000E582D  _script_s18a9_interact             script_s18a9_interact
     000E584F  _script_s18t0_interact             script_s18t0_interact
     000E587F  _script_s19_p_hit1                 script_s19_p_hit1
     000E58A7  _script_s19a5_interact             script_s19a5_interact
     000E58C9  _script_s20_p_hit1                 script_s20_p_hit1
     000E58F1  _script_s20a12_interact            script_s20a12_interact
     000E5913  _script_s20a13_interact            script_s20a13_interact
     000E5935  _script_s20a14_interact            script_s20a14_interact
     000E5957  _script_s20a15_interact            script_s20a15_interact
     000E5979  _script_s20t0_interact             script_s20t0_interact
     000E59A9  _script_s21_p_hit1                 script_s21_p_hit1
     000E59D1  _script_s21a6_interact             script_s21a6_interact
ASxxxx Linker V03.00 + NoICE + sdld,  page 62.
Hexadecimal  [32-Bits]

Area                                    Addr        Size        Decimal Bytes (Attributes)
--------------------------------        ----        ----        ------- ----- ------------
_CODE_14                            000E4000    000026BD =        9917. bytes (REL,CON)

      Value  Global                              Global Defined In Module
      -----  --------------------------------   ------------------------
     000E59F3  _script_s21a7_interact             script_s21a7_interact
     000E5A15  _script_s21a8_interact             script_s21a8_interact
     000E5A37  _script_s22_p_hit1                 script_s22_p_hit1
     000E5A5F  _script_s22a5_interact             script_s22a5_interact
     000E5A81  _script_s23_p_hit1                 script_s23_p_hit1
     000E5AA9  _script_s23a4_interact             script_s23a4_interact
     000E5ACB  _script_s23a5_interact             script_s23a5_interact
     000E5AED  _script_s23a6_interact             script_s23a6_interact
     000E5B0F  _script_s23a7_interact             script_s23a7_interact
     000E5B31  _script_s24_p_hit1                 script_s24_p_hit1
     000E5B59  _script_s24a6_interact             script_s24a6_interact
     000E5B7B  _script_s24a7_interact             script_s24a7_interact
     000E5B9D  _script_s24a8_interact             script_s24a8_interact
     000E5BBF  _script_s24a9_interact             script_s24a9_interact
     000E5BE1  _script_s25_p_hit1                 script_s25_p_hit1
     000E5C09  _script_s25a7_interact             script_s25a7_interact
     000E5C2B  _script_s25a8_interact             script_s25a8_interact
     000E5C4D  _script_s25a9_interact             script_s25a9_interact
     000E5C6F  _script_s25t0_interact             script_s25t0_interact
     000E5C9F  _script_s25t1_interact             script_s25t1_interact
     000E5CCF  _script_s26_p_hit1                 script_s26_p_hit1
     000E5CF7  _script_s26a10_interact            script_s26a10_interact
     000E5D19  _script_s26a11_interact            script_s26a11_interact
     000E5D3B  _script_s26a8_interact             script_s26a8_interact
     000E5D5D  _script_s26a9_interact             script_s26a9_interact
     000E5D7F  _script_s27_p_hit1                 script_s27_p_hit1
     000E5DA7  _script_s27a7_interact             script_s27a7_interact
     000E5DC9  _script_s27a8_interact             script_s27a8_interact
     000E5DEB  _script_s28_p_hit1                 script_s28_p_hit1
     000E5E13  _script_s28a10_interact            script_s28a10_interact
     000E5E35  _script_s28a7_interact             script_s28a7_interact
     000E5E57  _script_s28a8_interact             script_s28a8_interact
     000E5E79  _script_s28a9_interact             script_s28a9_interact
     000E5E9B  _script_s29_p_hit1                 script_s29_p_hit1
     000E5EC3  _script_s29a10_interact            script_s29a10_interact
     000E5EE5  _script_s29a11_interact            script_s29a11_interact
     000E5F07  _script_s29a12_interact            script_s29a12_interact
     000E5F29  _script_s29a13_interact            script_s29a13_interact
     000E5F4B  _script_s29a9_interact             script_s29a9_interact
     000E5F6D  _script_s3_p_hit1                  script_s3_p_hit1
     000E5F95  _script_s30_p_hit1                 script_s30_p_hit1
     000E5FBD  _script_s30a11_interact            script_s30a11_interact
     000E5FDF  _script_s30a12_interact            script_s30a12_interact
     000E6001  _script_s30a13_interact            script_s30a13_interact
     000E6023  _script_s30a14_interact            script_s30a14_interact
     000E6045  _script_s30t0_interact             script_s30t0_interact
     000E6075  _script_s30t1_interact             script_s30t1_interact
     000E60A5  _script_s31_p_hit1                 script_s31_p_hit1
     000E60CD  _script_s31a2_interact             script_s31a2_interact
     000E60EF  _script_s32_p_hit1                 script_s32_p_hit1
     000E6117  _script_s32t0_interact             script_s32t0_interact
ASxxxx Linker V03.00 + NoICE + sdld,  page 63.
Hexadecimal  [32-Bits]

Area                                    Addr        Size        Decimal Bytes (Attributes)
--------------------------------        ----        ----        ------- ----- ------------
_CODE_14                            000E4000    000026BD =        9917. bytes (REL,CON)

      Value  Global                              Global Defined In Module
      -----  --------------------------------   ------------------------
     000E614C  _script_s3a0_interact              script_s3a0_interact
     000E616E  _script_s3a2_interact              script_s3a2_interact
     000E6190  _script_s3a3_interact              script_s3a3_interact
     000E61B2  _script_s4a2_interact              script_s4a2_interact
     000E61D4  _script_s4a3_interact              script_s4a3_interact
     000E61F6  _script_s4t0_interact              script_s4t0_interact
     000E6226  _script_s4t1_interact              script_s4t1_interact
     000E622D  _script_s5_p_hit1                  script_s5_p_hit1
     000E6255  _script_s6_p_hit1                  script_s6_p_hit1
     000E627D  _script_s6a2_interact              script_s6a2_interact
     000E629F  _script_s6a3_interact              script_s6a3_interact
     000E62C1  _script_s6a4_interact              script_s6a4_interact
     000E62E3  _script_s7_p_hit1                  script_s7_p_hit1
     000E630B  _script_s7a2_interact              script_s7a2_interact
     000E632D  _script_s7a3_interact              script_s7a3_interact
     000E634F  _script_s8_p_hit1                  script_s8_p_hit1
     000E6377  _script_s8a2_interact              script_s8a2_interact
     000E6399  _script_s9_p_hit1                  script_s9_p_hit1
     000E63C1  _script_s9a0_interact              script_s9a0_interact
     000E63E3  _script_sfx_fireball_attack        script_sfx_fireball_attack
     000E6411  _script_sfx_jump                   script_sfx_jump
     000E642D  ___func_spritesheet_0              spritesheet_0
     000E642D  _spritesheet_0_metasprite_0        spritesheet_0
     000E6431  _spritesheet_0_metasprite_1        spritesheet_0
     000E6439  _spritesheet_0_metasprite_2        spritesheet_0
     000E6441  _spritesheet_0_metasprites         spritesheet_0
     000E6447  _spritesheet_0_animations          spritesheet_0
     000E6457  _spritesheet_0_animations_lookup   spritesheet_0
     000E6459  _spritesheet_0                     spritesheet_0
     000E646C  ___func_spritesheet_12             spritesheet_12
     000E646C  _spritesheet_12_metasprite_0       spritesheet_12
     000E6488  _spritesheet_12_metasprites        spritesheet_12
     000E648A  _spritesheet_12_animations         spritesheet_12
     000E649A  _spritesheet_12_animations_looku   spritesheet_12
     000E649C  _spritesheet_12                    spritesheet_12
     000E64AF  ___func_spritesheet_16             spritesheet_16
     000E64AF  _spritesheet_16_metasprite_0       spritesheet_16
     000E64BB  _spritesheet_16_metasprites        spritesheet_16
     000E64BD  _spritesheet_16_animations         spritesheet_16
     000E64CD  _spritesheet_16_animations_looku   spritesheet_16
     000E64CF  _spritesheet_16                    spritesheet_16
     000E64E2  ___func_spritesheet_17             spritesheet_17
     000E64E2  _spritesheet_17_metasprite_0       spritesheet_17
     000E64EE  _spritesheet_17_metasprites        spritesheet_17
     000E64F0  _spritesheet_17_animations         spritesheet_17
     000E6500  _spritesheet_17_animations_looku   spritesheet_17
     000E6502  _spritesheet_17                    spritesheet_17
     000E6515  ___func_spritesheet_2              spritesheet_2
     000E6515  _spritesheet_2_metasprite_0        spritesheet_2
     000E6519  _spritesheet_2_metasprite_1        spritesheet_2
     000E6521  _spritesheet_2_metasprite_2        spritesheet_2
ASxxxx Linker V03.00 + NoICE + sdld,  page 64.
Hexadecimal  [32-Bits]

Area                                    Addr        Size        Decimal Bytes (Attributes)
--------------------------------        ----        ----        ------- ----- ------------
_CODE_14                            000E4000    000026BD =        9917. bytes (REL,CON)

      Value  Global                              Global Defined In Module
      -----  --------------------------------   ------------------------
     000E6529  _spritesheet_2_metasprites         spritesheet_2
     000E652F  _spritesheet_2_animations          spritesheet_2
     000E653F  _spritesheet_2_animations_lookup   spritesheet_2
     000E6541  _spritesheet_2                     spritesheet_2
     000E6554  ___func_spritesheet_21             spritesheet_21
     000E6554  _spritesheet_21_metasprite_0       spritesheet_21
     000E6560  _spritesheet_21_metasprites        spritesheet_21
     000E6562  _spritesheet_21_animations         spritesheet_21
     000E6572  _spritesheet_21_animations_looku   spritesheet_21
     000E6574  _spritesheet_21                    spritesheet_21
     000E6587  ___func_spritesheet_22             spritesheet_22
     000E6587  _spritesheet_22_metasprite_0       spritesheet_22
     000E6597  _spritesheet_22_metasprites        spritesheet_22
     000E6599  _spritesheet_22_animations         spritesheet_22
     000E65A9  _spritesheet_22_animations_looku   spritesheet_22
     000E65AB  _spritesheet_22                    spritesheet_22
     000E65BE  ___func_spritesheet_9              spritesheet_9
     000E65BE  _spritesheet_9_metasprite_0        spritesheet_9
     000E65CA  _spritesheet_9_metasprites         spritesheet_9
     000E65CC  _spritesheet_9_animations          spritesheet_9
     000E65DC  _spritesheet_9_animations_lookup   spritesheet_9
     000E65DE  _spritesheet_9                     spritesheet_9
     000E65F1  ___func_tileset_16                 tileset_16
     000E65F1  _tileset_16                        tileset_16
     000E6613  ___func_tileset_23                 tileset_23
     000E6613  _tileset_23                        tileset_23
     000E6635  ___func_tileset_24                 tileset_24
     000E6635  _tileset_24                        tileset_24
     000E6657  ___func_tileset_28                 tileset_28
     000E6657  _tileset_28                        tileset_28
     000E6679  ___func_tileset_7                  tileset_7
     000E6679  _tileset_7                         tileset_7
     000E669B  ___func_tileset_9                  tileset_9
     000E669B  _tileset_9                         tileset_9
ASxxxx Linker V03.00 + NoICE + sdld,  page 65.
Hexadecimal  [32-Bits]

Area                                    Addr        Size        Decimal Bytes (Attributes)
--------------------------------        ----        ----        ------- ----- ------------
_CODE_4                             00044000    00002947 =       10567. bytes (REL,CON)

      Value  Global                              Global Defined In Module
      -----  --------------------------------   ------------------------
     00044000  _core_reset                        core
     00044075  _process_VM                        core
     0004431C  _core_run                          core
     000443E4  ___HandleCrash_banked              
     0004474B  _load_init                         data_manager
     0004475E  _spritesheet_none_far              data_manager
     00044761  _load_bkg_tileset                  data_manager
     0004486E  _load_background                   data_manager
     0004496C  _load_sprite                       data_manager
     00044A69  _load_bounds                       data_manager
     00044A89  _do_load_palette                   data_manager
     00044B09  _get_farptr_index                  data_manager
     00044B9F  _load_scene                        data_manager
     000454CE  _load_player                       data_manager
     0004551A  _load_emote                        data_manager
     0004552E  _events_init                       events
     0004556E  _timers_init                       events
     000455AE  _CGBFadeToWhiteStep                fade_manager
     000455E7  _CGBFadeToBlackStep                fade_manager
     00045622  _ApplyPaletteChangeColor           fade_manager
     00045666  _fade_speeds                       fade_manager
     0004566D  _DMGFadeToWhiteStep                fade_manager
     00045690  _DMGFadeToBlackStep                fade_manager
     000456B5  _ApplyPaletteChangeDMG             fade_manager
     0004572C  _fade_init                         fade_manager
     00045754  _fade_in                           fade_manager
     00045785  _fade_out                          fade_manager
     000457B7  _fade_update                       fade_manager
     00045811  _fade_applypalettechange           fade_manager
     0004582B  _fade_setspeed                     fade_manager
     0004583B  _fade_in_modal                     fade_manager
     0004585B  _fade_out_modal                    fade_manager
     000458E7  _save_sram_banks                   
     00045972  _erase_flash                       
     0004598D  _restore_sram_bank                 flasher
     000459BC  _restore_sram                      flasher
     000459D2  _save_sram                         flasher
     000459E5  _input_init                        input
     00045A06  _data_init                         load_save
     00045A47  _signature                         load_save
     00045A4B  _save_points                       load_save
     00045A8F  _data_slot_address                 load_save
     00045AE7  _data_save                         load_save
     00045B9E  _data_load                         load_save
     00045C71  _data_clear                        load_save
     00045C96  _data_peek                         load_save
     00045D34  _sound_init                        music_manager
     00045D65  _music_init                        music_manager
     00045DA1  _music_events_poll                 music_manager
     00045DCB  _music_stop                        music_manager
ASxxxx Linker V03.00 + NoICE + sdld,  page 66.
Hexadecimal  [32-Bits]

Area                                    Addr        Size        Decimal Bytes (Attributes)
--------------------------------        ----        ----        ------- ----- ------------
_CODE_4                             00044000    00002947 =       10567. bytes (REL,CON)

      Value  Global                              Global Defined In Module
      -----  --------------------------------   ------------------------
     00045DDE  _wave_play                         music_manager
     00045E1C  _FX_REG_SIZES                      music_manager
     00045E21  _FX_ADDR_LO                        music_manager
     00045E26  _channel_masks                     music_manager
     00045E2B  _sound_play                        music_manager
     00045EAC  _palette_init                      palette
     00045EE5  _CGBZeroPalette                    palette
     00045EFA  _projectiles_init                  projectiles
     00045F3A  _projectile_launch                 projectiles
     0004631F  _set_sample                        sample_player
     00046358  _set_sgb_border                    sgb_border
     0004659C  _SIO_init                          sio
     000465C5  _trigger_reset                     trigger
     000465D5  _trigger_interact                  trigger
     00046615  _trigger_activate_at               trigger
     00046660  _trigger_activate_at_intersectio   trigger
     000467A2  _trigger_at_intersection           trigger
     000468B7  _trigger_at_tile                   trigger

ASxxxx Linker V03.00 + NoICE + sdld,  page 67.
Hexadecimal  [32-Bits]

Area                                    Addr        Size        Decimal Bytes (Attributes)
--------------------------------        ----        ----        ------- ----- ------------
_CRASH_HEADER0                      00000000    00000005 =           5. bytes (ABS,CON)

      Value  Global                              Global Defined In Module
      -----  --------------------------------   ------------------------
ASxxxx Linker V03.00 + NoICE + sdld,  page 68.
Hexadecimal  [32-Bits]

Area                                    Addr        Size        Decimal Bytes (Attributes)
--------------------------------        ----        ----        ------- ----- ------------
_CRASH_HEADER1                      00000000    00000004 =           4. bytes (ABS,CON)

      Value  Global                              Global Defined In Module
      -----  --------------------------------   ------------------------
ASxxxx Linker V03.00 + NoICE + sdld,  page 69.
Hexadecimal  [32-Bits]

Area                                    Addr        Size        Decimal Bytes (Attributes)
--------------------------------        ----        ----        ------- ----- ------------
_CRASH_SCRATCH2                     00000000    000001CB =         459. bytes (ABS,CON)

      Value  Global                              Global Defined In Module
      -----  --------------------------------   ------------------------
ASxxxx Linker V03.00 + NoICE + sdld,  page 70.
Hexadecimal  [32-Bits]

Area                                    Addr        Size        Decimal Bytes (Attributes)
--------------------------------        ----        ----        ------- ----- ------------
_HEADER_SIO0                        00000000    00000004 =           4. bytes (ABS,CON)

      Value  Global                              Global Defined In Module
      -----  --------------------------------   ------------------------
ASxxxx Linker V03.00 + NoICE + sdld,  page 71.
Hexadecimal  [32-Bits]

Area                                    Addr        Size        Decimal Bytes (Attributes)
--------------------------------        ----        ----        ------- ----- ------------
_HEADER_TIMER0                      00000000    00000004 =           4. bytes (ABS,CON)

      Value  Global                              Global Defined In Module
      -----  --------------------------------   ------------------------
ASxxxx Linker V03.00 + NoICE + sdld,  page 72.
Hexadecimal  [32-Bits]

Area                                    Addr        Size        Decimal Bytes (Attributes)
--------------------------------        ----        ----        ------- ----- ------------
_CODE_2                             00024000    0000395A =       14682. bytes (REL,CON)

      Value  Global                              Global Defined In Module
      -----  --------------------------------   ------------------------
     00024000  _scroll_rect                       
     0002403D  _vm_actor_move_to                  vm_actor
     000248B8  _vm_actor_activate                 vm_actor
     000248F6  _vm_actor_deactivate               vm_actor
     00024934  _vm_actor_terminate_update         vm_actor
     0002497B  _vm_actor_set_dir                  vm_actor
     000249C4  _vm_actor_set_anim                 vm_actor
     00024A51  _vm_actor_set_pos                  vm_actor
     00024ACB  _vm_actor_get_pos                  vm_actor
     00024B3A  _vm_actor_get_dir                  vm_actor
     00024BB4  _vm_actor_get_angle                vm_actor
     00024C35  _vm_actor_emote                    vm_actor
     00024CF9  _vm_actor_set_bounds               vm_actor
     00024D57  _vm_actor_set_spritesheet          vm_actor
     00024E26  _vm_actor_replace_tile             vm_actor
     00024E90  _vm_actor_set_hidden               vm_actor
     00024ED5  _vm_actor_set_anim_tick            vm_actor
     00024F13  _vm_actor_set_move_speed           vm_actor
     00024F51  _vm_actor_set_coll_enabled         vm_actor
     00024F96  _vm_actor_set_anim_frame           vm_actor
     00024FD9  _vm_actor_get_anim_frame           vm_actor
     00025021  _vm_actor_set_anim_set             vm_actor
     000250AE  _vm_actor_set_spritesheet_by_ref   vm_actor
     000251BC  _vm_camera_move_to                 vm_camera
     0002530F  _vm_camera_set_pos                 vm_camera
     00025356  _camera_shake_frames               vm_camera
     0002544E  _vm_show_sprites                   vm_gameboy
     0002545A  _vm_hide_sprites                   vm_gameboy
     00025466  _vm_input_wait                     vm_gameboy
     0002548E  _vm_context_prepare                vm_gameboy
     000254B9  _vm_input_attach                   vm_gameboy
     000254CF  _vm_input_detach                   vm_gameboy
     000254E3  _vm_input_get                      vm_gameboy
     00025517  _vm_fade_in                        vm_gameboy
     0002552D  _vm_fade_out                       vm_gameboy
     00025543  _vm_timer_prepare                  vm_gameboy
     0002556E  _vm_timer_set                      vm_gameboy
     00025589  _vm_timer_stop                     vm_gameboy
     0002559D  _vm_timer_reset                    vm_gameboy
     000255B4  _vm_get_tile_xy                    vm_gameboy
     0002569D  _vm_replace_tile                   vm_gameboy
     00025746  _vm_poll                           vm_gameboy
     0002581F  _vm_set_sprite_mode                vm_gameboy
     00025833  _vm_replace_tile_xy                vm_gameboy
     00025955  _vm_rumble                         vm_gameboy
     0002596D  _vm_save_clear                     vm_load_save
     0002597C  _vm_save_peek                      vm_load_save
     000259FC  _vm_sin_scale                      vm_math
     00025A9E  _vm_cos_scale                      vm_math
     00025B42  _vm_music_play                     vm_music
ASxxxx Linker V03.00 + NoICE + sdld,  page 73.
Hexadecimal  [32-Bits]

Area                                    Addr        Size        Decimal Bytes (Attributes)
--------------------------------        ----        ----        ------- ----- ------------
_CODE_2                             00024000    0000395A =       14682. bytes (REL,CON)

      Value  Global                              Global Defined In Module
      -----  --------------------------------   ------------------------
     00025B56  _vm_music_stop                     vm_music
     00025B5E  _vm_music_mute                     vm_music
     00025B6E  _vm_music_routine                  vm_music
     00025B95  _vm_music_setpos                   vm_music
     00025B9F  _vm_sound_mastervol                vm_music
     00025BA5  _vm_sound_play                     vm_music
     00025BED  _vm_wave_play                      vm_music
     00025C0A  _vm_load_palette                   vm_palette
     00025DBE  _vm_projectile_launch              vm_projectiles
     00025DF9  _vm_rtc_latch                      vm_rtc
     00025E01  _vm_rtc_get                        vm_rtc
     00025E4A  _vm_rtc_set                        vm_rtc
     00025E93  _vm_rtc_start                      vm_rtc
     00025EAE  _vm_scene_push                     vm_scene
     00025F33  _vm_scene_pop                      vm_scene
     00025F41  _vm_scene_pop_all                  vm_scene
     00025F4C  _vm_scene_stack_reset              vm_scene
     00025F55  _vm_sio_set_mode                   vm_sio
     00025F68  _vm_sio_exchange                   vm_sio
     000262C1  _itoa_fmt                          vm_ui_a
     000262FA  .utoa_fmt                          vm_ui_a
     000263A4  _vm_display_text                   vm_ui
     000263BA  _vm_switch_text_layer              vm_ui
     000263D4  _vm_overlay_setpos                 vm_ui
     000263EE  _vm_overlay_hide                   vm_ui
     00026403  _vm_overlay_wait                   vm_ui
     000264A6  _vm_overlay_move_to                vm_ui
     000264EA  _vm_overlay_set_scroll             vm_ui
     00026527  _vm_overlay_clear                  vm_ui
     000265FD  _vm_overlay_show                   vm_ui
     0002664B  _vm_choice                         vm_ui
     000266EA  _vm_load_frame                     vm_ui
     000266FD  _vm_load_cursor                    vm_ui
     00026710  _vm_set_font                       vm_ui
     0002673D  _vm_set_print_dir                  vm_ui
     00026746  _vm_overlay_scroll                 vm_ui
     000267A2  _vm_overlay_set_submap             vm_ui
     00026812  _vm_call_rel                       vm
     00026864  _vm_call                           vm
     000268A6  _vm_ret                            vm
     00026905  _vm_call_far                       vm
     00026982  _vm_ret_far                        vm
     000269F1  _vm_push                           vm
     00026A1B  _vm_pop                            vm
     00026A56  _vm_loop_rel                       vm
     00026B04  _vm_loop                           vm
     00026B91  _vm_jump_rel                       vm
     00026BB5  _vm_jump                           vm
     00026BC1  _vm_systime                        vm
     00026BED  _wait_frames                       vm
     00026C64  _vm_invoke                         vm
ASxxxx Linker V03.00 + NoICE + sdld,  page 74.
Hexadecimal  [32-Bits]

Area                                    Addr        Size        Decimal Bytes (Attributes)
--------------------------------        ----        ----        ------- ----- ------------
_CODE_2                             00024000    0000395A =       14682. bytes (REL,CON)

      Value  Global                              Global Defined In Module
      -----  --------------------------------   ------------------------
     00026D90  _vm_join                           vm
     00026DE9  _vm_terminate                      vm
     00026E16  _vm_if                             vm
     00026F5A  _vm_if_const                       vm
     0002706E  _vm_push_value                     vm
     000270C0  _vm_push_value_ind                 vm
     00027135  _vm_push_reference                 vm
     0002718C  _vm_reserve                        vm
     000271B9  _vm_set                            vm
     0002721A  _vm_set_const                      vm
     00027246  _vm_get_tlocal                     vm
     000272D3  _vm_test_terminate                 vm
     000272DE  _vm_idle                           vm
     000272EA  _vm_get_uint8                      vm
     0002731D  _vm_get_int8                       vm
     00027351  _vm_get_int16                      vm
     00027393  _vm_set_uint8                      vm
     000273BF  _vm_set_int8                       vm
     000273EB  _vm_set_int16                      vm
     0002742A  _vm_set_const_int8                 vm
     00027433  _vm_set_const_int16                vm
     0002743F  _vm_randomize                      vm
     0002744A  _vm_rand                           vm
     000274CF  _vm_lock                           vm
     000274DE  _vm_unlock                         vm
     000274F1  _vm_raise                          vm
     00027533  _vm_set_indirect                   vm
     000275AE  _vm_get_indirect                   vm
     00027629  _vm_poll_loaded                    vm
     00027658  _vm_memset                         vm
     0002769D  _vm_memcpy                         vm
     0002771D  _script_runner_init                vm
     000277D9  _script_execute                    vm
     000278F4  _script_terminate                  vm
ASxxxx Linker V03.00 + NoICE + sdld,  page 75.
Hexadecimal  [32-Bits]

Area                                    Addr        Size        Decimal Bytes (Attributes)
--------------------------------        ----        ----        ------- ----- ------------
_CODE_6                             00064000    00004000 =       16384. bytes (REL,CON)

      Value  Global                              Global Defined In Module
      -----  --------------------------------   ------------------------
     00064000  ___func_font_0                     font_0
     00064DB0  _font_0                            font_0
     000652D1  _music_track_1__Data               music_track_1__Data
     00065E17  _music_track_4__Data               music_track_4__Data
     00065E2C  ___func_scene_17_actors            scene_17_actors
     00065E2C  _scene_17_actors                   scene_17_actors
     00065F58  _script_sfx_melee_attack           script_sfx_melee_attack
     00065F6C  ___func_tileset_2                  tileset_2
     00065F6C  _tileset_2                         tileset_2
     000675EE  ___func_tileset_5                  tileset_5
     000675EE  _tileset_5                         tileset_5

ASxxxx Linker V03.00 + NoICE + sdld,  page 76.
Hexadecimal  [32-Bits]

Area                                    Addr        Size        Decimal Bytes (Attributes)
--------------------------------        ----        ----        ------- ----- ------------
_CODE_13                            000D4000    00003FFE =       16382. bytes (REL,CON)

      Value  Global                              Global Defined In Module
      -----  --------------------------------   ------------------------
     000D4000  ___func_frame_image                frame_image
     000D4000  _frame_image                       frame_image
     000D4090  ___func_scene_0                    scene_0
     000D4090  _scene_0                           scene_0
     000D40CA  ___func_scene_12_projectiles       scene_12_projectiles
     000D40CA  _scene_12_projectiles              scene_12_projectiles
     000D410F  ___func_scene_16_actors            scene_16_actors
     000D410F  _scene_16_actors                   scene_16_actors
     000D4173  ___func_scene_32_actors            scene_32_actors
     000D4173  _scene_32_actors                   scene_32_actors
     000D41D7  ___func_scene_4_actors             scene_4_actors
     000D41D7  _scene_4_actors                    scene_4_actors
     000D429F  ___func_scene_8_actors             scene_8_actors
     000D429F  _scene_8_actors                    scene_8_actors
     000D4335  _script_enemy_boss_hitstun         script_enemy_boss_hitstun
     000D43C6  _script_engine_init                
     000D440E  _script_event_enemy_hitstun        script_event_enemy_hitstun
     000D449B  _script_s0_init                    script_s0_init
     000D4520  _script_s0a4_update                script_s0a4_update
     000D459B  _script_s0t0_interact              script_s0t0_interact
     000D4655  _script_s1_init                    script_s1_init
     000D469B  _script_s10_init                   script_s10_init
     000D4725  _script_s10a12_update              script_s10a12_update
     000D47A0  _script_s10a8_update               script_s10a8_update
     000D481B  _script_s10a9_update               script_s10a9_update
     000D4896  _script_s11_init                   script_s11_init
     000D4911  _script_s12_init                   script_s12_init
     000D4996  _script_s12a6_interact             script_s12a6_interact
     000D4A32  _script_s12a6_update               script_s12a6_update
     000D4AB2  _script_s13_init                   script_s13_init
     000D4B41  _script_s13a0_update               script_s13a0_update
     000D4B9D  _script_s13a3_update               script_s13a3_update
     000D4BF9  _script_s14_init                   script_s14_init
     000D4C4D  _script_s15_init                   script_s15_init
     000D4CA6  _script_s16_init                   script_s16_init
     000D4D26  _script_s17_init                   script_s17_init
     000D4DAB  _script_s17a5_update               script_s17a5_update
     000D4E26  _script_s17t0_interact             script_s17t0_interact
     000D4EE0  _script_s18_init                   script_s18_init
     000D4F6A  _script_s18a7_update               script_s18a7_update
     000D4FC6  _script_s18a9_update               script_s18a9_update
     000D5041  _script_s19_init                   script_s19_init
     000D50C6  _script_s19a5_update               script_s19a5_update
     000D5122  _script_s19t0_interact             script_s19t0_interact
     000D51DC  _script_s2_init                    script_s2_init
     000D5242  _script_s20_init                   script_s20_init
     000D52D1  _script_s20a14_update              script_s20a14_update
     000D534C  _script_s20a15_update              script_s20a15_update
     000D53A8  _script_s21_init                   script_s21_init
     000D5437  _script_s21a6_update               script_s21a6_update
ASxxxx Linker V03.00 + NoICE + sdld,  page 77.
Hexadecimal  [32-Bits]

Area                                    Addr        Size        Decimal Bytes (Attributes)
--------------------------------        ----        ----        ------- ----- ------------
_CODE_13                            000D4000    00003FFE =       16382. bytes (REL,CON)

      Value  Global                              Global Defined In Module
      -----  --------------------------------   ------------------------
     000D5493  _script_s21a7_update               script_s21a7_update
     000D550E  _script_s21a8_update               script_s21a8_update
     000D556A  _script_s21t0_interact             script_s21t0_interact
     000D560C  _script_s22_init                   script_s22_init
     000D568C  _script_s22t0_interact             script_s22t0_interact
     000D572E  _script_s23_init                   script_s23_init
     000D57BD  _script_s23a6_update               script_s23a6_update
     000D5819  _script_s23t0_interact             script_s23t0_interact
     000D58BB  _script_s24_init                   script_s24_init
     000D594A  _script_s24a6_update               script_s24a6_update
     000D59C5  _script_s24a7_update               script_s24a7_update
     000D5A4A  _script_s24a8_update               script_s24a8_update
     000D5AB0  _script_s24a9_update               script_s24a9_update
     000D5B0C  _script_s24t0_interact             script_s24t0_interact
     000D5BAE  _script_s25_init                   script_s25_init
     000D5C38  _script_s25a7_update               script_s25a7_update
     000D5CB3  _script_s25a8_update               script_s25a8_update
     000D5D2E  _script_s25a9_update               script_s25a9_update
     000D5DA9  _script_s26_init                   script_s26_init
     000D5E3D  _script_s26a10_update              script_s26a10_update
     000D5E99  _script_s26a11_update              script_s26a11_update
     000D5F14  _script_s26a8_update               script_s26a8_update
     000D5F70  _script_s26a9_update               script_s26a9_update
     000D5FEB  _script_s26t0_interact             script_s26t0_interact
     000D608D  _script_s27_init                   script_s27_init
     000D6112  _script_s27a8_update               script_s27a8_update
     000D616E  _script_s27t0_interact             script_s27t0_interact
     000D6210  _script_s28_init                   script_s28_init
     000D629F  _script_s28a10_update              script_s28a10_update
     000D6305  _script_s28a8_update               script_s28a8_update
     000D6361  _script_s28a9_update               script_s28a9_update
     000D63C7  _script_s28t0_interact             script_s28t0_interact
     000D6469  _script_s29_init                   script_s29_init
     000D64FD  _script_s29a12_update              script_s29a12_update
     000D6559  _script_s29a13_update              script_s29a13_update
     000D65B5  _script_s29a9_update               script_s29a9_update
     000D6630  _script_s29t0_interact             script_s29t0_interact
     000D66D2  _script_s3_init                    script_s3_init
     000D675C  _script_s30_init                   script_s30_init
     000D67EB  _script_s30a11_update              script_s30a11_update
     000D6866  _script_s30a12_update              script_s30a12_update
     000D68C2  _script_s30a13_update              script_s30a13_update
     000D6949  _script_s30a14_update              script_s30a14_update
     000D69C4  _script_s31_init                   script_s31_init
     000D6A44  _script_s31a2_update               script_s31a2_update
     000D6AA0  _script_s31t0_interact             script_s31t0_interact
     000D6B42  _script_s32_init                   script_s32_init
     000D6BD0  _script_s3a2_update                script_s3a2_update
     000D6C4B  _script_s3t0_interact              script_s3t0_interact
     000D6C93  _script_s4_init                    script_s4_init
     000D6D18  _script_s4a2_update                script_s4a2_update
ASxxxx Linker V03.00 + NoICE + sdld,  page 78.
Hexadecimal  [32-Bits]

Area                                    Addr        Size        Decimal Bytes (Attributes)
--------------------------------        ----        ----        ------- ----- ------------
_CODE_13                            000D4000    00003FFE =       16382. bytes (REL,CON)

      Value  Global                              Global Defined In Module
      -----  --------------------------------   ------------------------
     000D6D74  _script_s4a3_update                script_s4a3_update
     000D6DD0  _script_s5_init                    script_s5_init
     000D6E55  _script_s5a0_interact              script_s5a0_interact
     000D6EF1  _script_s5a0_update                script_s5a0_update
     000D6F71  _script_s5t0_interact              script_s5t0_interact
     000D7013  _script_s6_init                    script_s6_init
     000D70A2  _script_s6a2_update                script_s6a2_update
     000D70FE  _script_s6a3_update                script_s6a3_update
     000D7179  _script_s6a4_update                script_s6a4_update
     000D71D5  _script_s6t0_interact              script_s6t0_interact
     000D7277  _script_s7_init                    script_s7_init
     000D72FC  _script_s7a2_update                script_s7a2_update
     000D7377  _script_s7a3_update                script_s7a3_update
     000D73D3  _script_s7t0_interact              script_s7t0_interact
     000D7475  _script_s8_init                    script_s8_init
     000D74FA  _script_s8a2_update                script_s8a2_update
     000D7556  _script_s8t0_interact              script_s8t0_interact
     000D75F8  ___func_spritesheet_1              spritesheet_1
     000D75F8  _spritesheet_1_metasprite_0        spritesheet_1
     000D75FC  _spritesheet_1_metasprite_1        spritesheet_1
     000D7610  _spritesheet_1_metasprite_2        spritesheet_1
     000D7624  _spritesheet_1_metasprites         spritesheet_1
     000D762A  _spritesheet_1_animations          spritesheet_1
     000D763A  _spritesheet_1_animations_lookup   spritesheet_1
     000D763C  _spritesheet_1                     spritesheet_1
     000D764F  ___func_spritesheet_11             spritesheet_11
     000D764F  _spritesheet_11_metasprite_0       spritesheet_11
     000D765F  _spritesheet_11_metasprite_1       spritesheet_11
     000D766F  _spritesheet_11_metasprite_2       spritesheet_11
     000D767F  _spritesheet_11_metasprite_3       spritesheet_11
     000D768F  _spritesheet_11_metasprites        spritesheet_11
     000D7697  _spritesheet_11_animations         spritesheet_11
     000D76A7  _spritesheet_11_animations_looku   spritesheet_11
     000D76A9  _spritesheet_11                    spritesheet_11
     000D76BC  ___func_spritesheet_13             spritesheet_13
     000D76BC  _spritesheet_13_metasprite_0       spritesheet_13
     000D76C8  _spritesheet_13_metasprite_1       spritesheet_13
     000D76D4  _spritesheet_13_metasprite_2       spritesheet_13
     000D76E0  _spritesheet_13_metasprite_3       spritesheet_13
     000D76EC  _spritesheet_13_metasprite_4       spritesheet_13
     000D76F8  _spritesheet_13_metasprite_5       spritesheet_13
     000D7704  _spritesheet_13_metasprite_6       spritesheet_13
     000D7710  _spritesheet_13_metasprite_7       spritesheet_13
     000D771C  _spritesheet_13_metasprites        spritesheet_13
     000D7734  _spritesheet_13_animations         spritesheet_13
     000D7744  _spritesheet_13_animations_looku   spritesheet_13
     000D7746  _spritesheet_13                    spritesheet_13
     000D7759  ___func_spritesheet_15             spritesheet_15
     000D7759  _spritesheet_15_metasprite_0       spritesheet_15
     000D775D  _spritesheet_15_metasprite_1       spritesheet_15
     000D7769  _spritesheet_15_metasprite_2       spritesheet_15
ASxxxx Linker V03.00 + NoICE + sdld,  page 79.
Hexadecimal  [32-Bits]

Area                                    Addr        Size        Decimal Bytes (Attributes)
--------------------------------        ----        ----        ------- ----- ------------
_CODE_13                            000D4000    00003FFE =       16382. bytes (REL,CON)

      Value  Global                              Global Defined In Module
      -----  --------------------------------   ------------------------
     000D7775  _spritesheet_15_metasprite_3       spritesheet_15
     000D7781  _spritesheet_15_metasprite_4       spritesheet_15
     000D778D  _spritesheet_15_metasprite_5       spritesheet_15
     000D7799  _spritesheet_15_metasprite_6       spritesheet_15
     000D77A5  _spritesheet_15_metasprite_7       spritesheet_15
     000D77B1  _spritesheet_15_metasprite_8       spritesheet_15
     000D77BD  _spritesheet_15_metasprites        spritesheet_15
     000D77CF  _spritesheet_15_animations         spritesheet_15
     000D77DF  _spritesheet_15_animations_looku   spritesheet_15
     000D77E1  _spritesheet_15                    spritesheet_15
     000D77F4  ___func_spritesheet_19             spritesheet_19
     000D77F4  _spritesheet_19_metasprite_0       spritesheet_19
     000D77F8  _spritesheet_19_metasprite_1       spritesheet_19
     000D781C  _spritesheet_19_metasprite_2       spritesheet_19
     000D7840  _spritesheet_19_metasprite_3       spritesheet_19
     000D7864  _spritesheet_19_metasprite_4       spritesheet_19
     000D7888  _spritesheet_19_metasprites        spritesheet_19
     000D7892  _spritesheet_19_animations         spritesheet_19
     000D78A2  _spritesheet_19_animations_looku   spritesheet_19
     000D78A4  _spritesheet_19                    spritesheet_19
     000D78B7  ___func_spritesheet_20             spritesheet_20
     000D78B7  _spritesheet_20_metasprite_0       spritesheet_20
     000D78BF  _spritesheet_20_metasprite_1       spritesheet_20
     000D78C7  _spritesheet_20_metasprite_2       spritesheet_20
     000D78CF  _spritesheet_20_metasprite_3       spritesheet_20
     000D78D7  _spritesheet_20_metasprite_4       spritesheet_20
     000D78DF  _spritesheet_20_metasprite_5       spritesheet_20
     000D78E7  _spritesheet_20_metasprites        spritesheet_20
     000D78F3  _spritesheet_20_animations         spritesheet_20
     000D7903  _spritesheet_20_animations_looku   spritesheet_20
     000D7905  _spritesheet_20                    spritesheet_20
     000D7918  ___func_spritesheet_3              spritesheet_3
     000D7918  _spritesheet_3_metasprite_0        spritesheet_3
     000D791C  _spritesheet_3_metasprite_1        spritesheet_3
     000D7944  _spritesheet_3_metasprite_2        spritesheet_3
     000D796C  _spritesheet_3_metasprite_3        spritesheet_3
     000D7994  _spritesheet_3_metasprite_4        spritesheet_3
     000D79BC  _spritesheet_3_metasprites         spritesheet_3
     000D79C6  _spritesheet_3_animations          spritesheet_3
     000D79D6  _spritesheet_3_animations_lookup   spritesheet_3
     000D79D8  _spritesheet_3                     spritesheet_3
     000D79EB  ___func_spritesheet_4              spritesheet_4
     000D79EB  _spritesheet_4_metasprite_0        spritesheet_4
     000D79EF  _spritesheet_4_metasprite_1        spritesheet_4
     000D79FB  _spritesheet_4_metasprite_2        spritesheet_4
     000D7A07  _spritesheet_4_metasprite_3        spritesheet_4
     000D7A13  _spritesheet_4_metasprite_4        spritesheet_4
     000D7A1F  _spritesheet_4_metasprite_5        spritesheet_4
     000D7A2B  _spritesheet_4_metasprite_6        spritesheet_4
     000D7A33  _spritesheet_4_metasprite_7        spritesheet_4
     000D7A3F  _spritesheet_4_metasprite_8        spritesheet_4
ASxxxx Linker V03.00 + NoICE + sdld,  page 80.
Hexadecimal  [32-Bits]

Area                                    Addr        Size        Decimal Bytes (Attributes)
--------------------------------        ----        ----        ------- ----- ------------
_CODE_13                            000D4000    00003FFE =       16382. bytes (REL,CON)

      Value  Global                              Global Defined In Module
      -----  --------------------------------   ------------------------
     000D7A47  _spritesheet_4_metasprites         spritesheet_4
     000D7A59  _spritesheet_4_animations          spritesheet_4
     000D7A69  _spritesheet_4_animations_lookup   spritesheet_4
     000D7A6B  _spritesheet_4                     spritesheet_4
     000D7A7E  ___func_spritesheet_7              spritesheet_7
     000D7A7E  _spritesheet_7_metasprite_0        spritesheet_7
     000D7A8E  _spritesheet_7_metasprite_1        spritesheet_7
     000D7A9E  _spritesheet_7_metasprite_2        spritesheet_7
     000D7AAE  _spritesheet_7_metasprite_3        spritesheet_7
     000D7ABE  _spritesheet_7_metasprites         spritesheet_7
     000D7AC6  _spritesheet_7_animations          spritesheet_7
     000D7AD6  _spritesheet_7_animations_lookup   spritesheet_7
     000D7AD8  _spritesheet_7                     spritesheet_7
     000D7AEB  ___func_spritesheet_8              spritesheet_8
     000D7AEB  _spritesheet_8_metasprite_0        spritesheet_8
     000D7AEF  _spritesheet_8_metasprite_1        spritesheet_8
     000D7AFB  _spritesheet_8_metasprite_2        spritesheet_8
     000D7B07  _spritesheet_8_metasprite_3        spritesheet_8
     000D7B13  _spritesheet_8_metasprite_4        spritesheet_8
     000D7B1F  _spritesheet_8_metasprites         spritesheet_8
     000D7B29  _spritesheet_8_animations          spritesheet_8
     000D7B39  _spritesheet_8_animations_lookup   spritesheet_8
     000D7B3B  _spritesheet_8                     spritesheet_8
     000D7B4E  ___func_tileset_11                 tileset_11
     000D7B4E  _tileset_11                        tileset_11
     000D7BB0  ___func_tileset_14                 tileset_14
     000D7BB0  _tileset_14                        tileset_14
     000D7C52  ___func_tileset_15                 tileset_15
     000D7C52  _tileset_15                        tileset_15
     000D7CD4  ___func_tileset_17                 tileset_17
     000D7CD4  _tileset_17                        tileset_17
     000D7D56  ___func_tileset_18                 tileset_18
     000D7D56  _tileset_18                        tileset_18
     000D7DF8  ___func_tileset_19                 tileset_19
     000D7DF8  _tileset_19                        tileset_19
     000D7EBA  ___func_tileset_27                 tileset_27
     000D7EBA  _tileset_27                        tileset_27
     000D7F7C  ___func_tileset_8                  tileset_8
     000D7F7C  _tileset_8                         tileset_8

ASxxxx Linker V03.00 + NoICE + sdld,  page 81.
Hexadecimal  [32-Bits]

Area                                    Addr        Size        Decimal Bytes (Attributes)
--------------------------------        ----        ----        ------- ----- ------------
_CODE_7                             00074000    00003FFF =       16383. bytes (REL,CON)

      Value  Global                              Global Defined In Module
      -----  --------------------------------   ------------------------
     00074459  _music_track_0__Data               music_track_0__Data
     00074E57  _music_track_2__Data               music_track_2__Data
     000755DD  _music_track_3__Data               music_track_3__Data
     000755F2  ___func_scene_10_collisions        scene_10_collisions
     000755F2  _scene_10_collisions               scene_10_collisions
     00075A2A  ___func_scene_25_collisions        scene_25_collisions
     00075A2A  _scene_25_collisions               scene_25_collisions
     00075E62  ___func_scene_30_collisions        scene_30_collisions
     00075E62  _scene_30_collisions               scene_30_collisions
     0007629A  _script_input_2                    script_input_2
     0007629B  _script_s13t0_interact             script_s13t0_interact
     0007633D  ___func_tilemap_15                 tilemap_15
     0007633D  _tilemap_15                        tilemap_15
     00076775  ___func_tilemap_22                 tilemap_22
     00076775  _tilemap_22                        tilemap_22
     00076BAD  ___func_tilemap_3                  tilemap_3
     00076BAD  _tilemap_3                         tilemap_3
     00076F09  ___func_tileset_13                 tileset_13
     00076F09  _tileset_13                        tileset_13
     0007736B  ___func_tileset_3                  tileset_3
     0007736B  _tileset_3                         tileset_3
     00077B4D  ___func_tileset_4                  tileset_4
     00077B4D  _tileset_4                         tileset_4

ASxxxx Linker V03.00 + NoICE + sdld,  page 82.
Hexadecimal  [32-Bits]

Area                                    Addr        Size        Decimal Bytes (Attributes)
--------------------------------        ----        ----        ------- ----- ------------
_CODE_12                            000C4000    00004000 =       16384. bytes (REL,CON)

      Value  Global                              Global Defined In Module
      -----  --------------------------------   ------------------------
     000C4000  ___func_scene_0_actors             scene_0_actors
     000C4000  _scene_0_actors                    scene_0_actors
     000C415E  ___func_scene_11_actors            scene_11_actors
     000C415E  _scene_11_actors                   scene_11_actors
     000C41F4  ___func_scene_12_actors            scene_12_actors
     000C41F4  _scene_12_actors                   scene_12_actors
     000C4352  ___func_scene_13_actors            scene_13_actors
     000C4352  _scene_13_actors                   scene_13_actors
     000C44B0  ___func_scene_19_actors            scene_19_actors
     000C44B0  _scene_19_actors                   scene_19_actors
     000C45DC  ___func_scene_22_actors            scene_22_actors
     000C45DC  _scene_22_actors                   scene_22_actors
     000C4708  ___func_scene_3_actors             scene_3_actors
     000C4708  _scene_3_actors                    scene_3_actors
     000C4866  ___func_scene_31_actors            scene_31_actors
     000C4866  _scene_31_actors                   scene_31_actors
     000C4992  ___func_scene_5_actors             scene_5_actors
     000C4992  _scene_5_actors                    scene_5_actors
     000C4AF0  _script_event_player_hitstun_0     script_event_player_hitstun_
     000C4BC6  _script_event_player_hitstun       script_event_player_hitstun
     000C4C9C  _script_input_3                    script_input_3
     000C4D8C  _script_s0a1_interact              script_s0a1_interact
     000C4E6A  _script_s11a0_interact             script_s11a0_interact
     000C4F48  _script_s13a1_update               script_s13a1_update
     000C504B  _script_s13a2_update               script_s13a2_update
     000C514E  _script_s17a4_interact             script_s17a4_interact
     000C522C  _script_s18a8_update               script_s18a8_update
     000C532F  _script_s19a4_interact             script_s19a4_interact
     000C540D  _script_s20a12_update              script_s20a12_update
     000C5510  _script_s20a13_update              script_s20a13_update
     000C5613  _script_s22a4_interact             script_s22a4_interact
     000C56F1  _script_s22a5_update               script_s22a5_update
     000C57C6  _script_s23a4_update               script_s23a4_update
     000C58A5  _script_s23a5_update               script_s23a5_update
     000C5984  _script_s23a7_update               script_s23a7_update
     000C5A87  _script_s23a8_interact             script_s23a8_interact
     000C5B65  _script_s27a6_interact             script_s27a6_interact
     000C5C43  _script_s27a7_update               script_s27a7_update
     000C5D18  _script_s28a7_update               script_s28a7_update
     000C5E1B  _script_s29a10_update              script_s29a10_update
     000C5EF0  _script_s29a11_update              script_s29a11_update
     000C5FF3  _script_s31a3_interact             script_s31a3_interact
     000C60D1  _script_s3a0_update                script_s3a0_update
     000C61D4  _script_s3a3_update                script_s3a3_update
     000C62D7  _script_s9_init                    script_s9_init
     000C63D5  ___func_spritesheet_14             spritesheet_14
     000C63D5  _spritesheet_14_metasprite_0       spritesheet_14
     000C63D9  _spritesheet_14_metasprite_1       spritesheet_14
     000C63E5  _spritesheet_14_metasprite_2       spritesheet_14
     000C63F1  _spritesheet_14_metasprite_3       spritesheet_14
ASxxxx Linker V03.00 + NoICE + sdld,  page 83.
Hexadecimal  [32-Bits]

Area                                    Addr        Size        Decimal Bytes (Attributes)
--------------------------------        ----        ----        ------- ----- ------------
_CODE_12                            000C4000    00004000 =       16384. bytes (REL,CON)

      Value  Global                              Global Defined In Module
      -----  --------------------------------   ------------------------
     000C63FD  _spritesheet_14_metasprite_4       spritesheet_14
     000C6409  _spritesheet_14_metasprite_5       spritesheet_14
     000C6415  _spritesheet_14_metasprite_6       spritesheet_14
     000C6421  _spritesheet_14_metasprite_7       spritesheet_14
     000C642D  _spritesheet_14_metasprite_8       spritesheet_14
     000C6439  _spritesheet_14_metasprite_9       spritesheet_14
     000C6445  _spritesheet_14_metasprite_10      spritesheet_14
     000C6451  _spritesheet_14_metasprite_11      spritesheet_14
     000C645D  _spritesheet_14_metasprite_12      spritesheet_14
     000C6469  _spritesheet_14_metasprite_13      spritesheet_14
     000C6475  _spritesheet_14_metasprite_14      spritesheet_14
     000C6481  _spritesheet_14_metasprite_15      spritesheet_14
     000C648D  _spritesheet_14_metasprite_16      spritesheet_14
     000C6499  _spritesheet_14_metasprites        spritesheet_14
     000C64BF  _spritesheet_14_animations         spritesheet_14
     000C64DF  _spritesheet_14_animations_looku   spritesheet_14
     000C64E5  _spritesheet_14                    spritesheet_14
     000C64F8  ___func_tilemap_30                 tilemap_30
     000C64F8  _tilemap_30                        tilemap_30
     000C6660  ___func_tilemap_4                  tilemap_4
     000C6660  _tilemap_4                         tilemap_4
     000C67C8  ___func_tilemap_8                  tilemap_8
     000C67C8  _tilemap_8                         tilemap_8
     000C6930  ___func_tilemap_9                  tilemap_9
     000C6930  _tilemap_9                         tilemap_9
     000C6A98  ___func_tilemap_attr_0             tilemap_attr_0
     000C6A98  _tilemap_attr_0                    tilemap_attr_0
     000C6C00  ___func_tilemap_attr_1             tilemap_attr_1
     000C6C00  _tilemap_attr_1                    tilemap_attr_1
     000C6D68  ___func_tilemap_attr_10            tilemap_attr_10
     000C6D68  _tilemap_attr_10                   tilemap_attr_10
     000C6ED0  ___func_tilemap_attr_11            tilemap_attr_11
     000C6ED0  _tilemap_attr_11                   tilemap_attr_11
     000C7038  ___func_tilemap_attr_14            tilemap_attr_14
     000C7038  _tilemap_attr_14                   tilemap_attr_14
     000C71A0  ___func_tilemap_attr_18            tilemap_attr_18
     000C71A0  _tilemap_attr_18                   tilemap_attr_18
     000C7308  ___func_tilemap_attr_2             tilemap_attr_2
     000C7308  _tilemap_attr_2                    tilemap_attr_2
     000C7470  ___func_tilemap_attr_21            tilemap_attr_21
     000C7470  _tilemap_attr_21                   tilemap_attr_21
     000C75D8  ___func_tilemap_attr_28            tilemap_attr_28
     000C75D8  _tilemap_attr_28                   tilemap_attr_28
     000C7740  ___func_tilemap_attr_3             tilemap_attr_3
     000C7740  _tilemap_attr_3                    tilemap_attr_3
     000C78A8  ___func_tilemap_attr_32            tilemap_attr_32
     000C78A8  _tilemap_attr_32                   tilemap_attr_32
     000C7A10  ___func_tilemap_attr_6             tilemap_attr_6
     000C7A10  _tilemap_attr_6                    tilemap_attr_6
     000C7B78  ___func_tileset_20                 tileset_20
     000C7B78  _tileset_20                        tileset_20
ASxxxx Linker V03.00 + NoICE + sdld,  page 84.
Hexadecimal  [32-Bits]

Area                                    Addr        Size        Decimal Bytes (Attributes)
--------------------------------        ----        ----        ------- ----- ------------
_CODE_12                            000C4000    00004000 =       16384. bytes (REL,CON)

      Value  Global                              Global Defined In Module
      -----  --------------------------------   ------------------------
     000C7CBA  ___func_tileset_21                 tileset_21
     000C7CBA  _tileset_21                        tileset_21
     000C7E1C  ___func_tileset_22                 tileset_22
     000C7E1C  _tileset_22                        tileset_22
     000C7EFE  ___func_tileset_26                 tileset_26
     000C7EFE  _tileset_26                        tileset_26

ASxxxx Linker V03.00 + NoICE + sdld,  page 85.
Hexadecimal  [32-Bits]

Area                                    Addr        Size        Decimal Bytes (Attributes)
--------------------------------        ----        ----        ------- ----- ------------
_CODE_11                            000B4000    00003FFF =       16383. bytes (REL,CON)

      Value  Global                              Global Defined In Module
      -----  --------------------------------   ------------------------
     000B4000  ___func_scene_0_collisions         scene_0_collisions
     000B4000  _scene_0_collisions                scene_0_collisions
     000B4168  ___func_scene_0_triggers           scene_0_triggers
     000B4168  _scene_0_triggers                  scene_0_triggers
     000B4170  ___func_scene_1_collisions         scene_1_collisions
     000B4170  _scene_1_collisions                scene_1_collisions
     000B42D8  ___func_scene_11_collisions        scene_11_collisions
     000B42D8  _scene_11_collisions               scene_11_collisions
     000B4440  ___func_scene_14_collisions        scene_14_collisions
     000B4440  _scene_14_collisions               scene_14_collisions
     000B45A8  ___func_scene_15_collisions        scene_15_collisions
     000B45A8  _scene_15_collisions               scene_15_collisions
     000B4710  ___func_scene_17_collisions        scene_17_collisions
     000B4710  _scene_17_collisions               scene_17_collisions
     000B4878  ___func_scene_18_actors            scene_18_actors
     000B4878  _scene_18_actors                   scene_18_actors
     000B4A6C  ___func_scene_19_collisions        scene_19_collisions
     000B4A6C  _scene_19_collisions               scene_19_collisions
     000B4BD4  ___func_scene_2_collisions         scene_2_collisions
     000B4BD4  _scene_2_collisions                scene_2_collisions
     000B4D3C  ___func_scene_21_actors            scene_21_actors
     000B4D3C  _scene_21_actors                   scene_21_actors
     000B4EFE  ___func_scene_22_collisions        scene_22_collisions
     000B4EFE  _scene_22_collisions               scene_22_collisions
     000B5066  ___func_scene_23_actors            scene_23_actors
     000B5066  _scene_23_actors                   scene_23_actors
     000B5228  ___func_scene_24_actors            scene_24_actors
     000B5228  _scene_24_actors                   scene_24_actors
     000B544E  ___func_scene_27_actors            scene_27_actors
     000B544E  _scene_27_actors                   scene_27_actors
     000B5642  ___func_scene_27_collisions        scene_27_collisions
     000B5642  _scene_27_collisions               scene_27_collisions
     000B57AA  ___func_scene_28_actors            scene_28_actors
     000B57AA  _scene_28_actors                   scene_28_actors
     000B59D0  ___func_scene_31_collisions        scene_31_collisions
     000B59D0  _scene_31_collisions               scene_31_collisions
     000B5B38  ___func_scene_6_actors             scene_6_actors
     000B5B38  _scene_6_actors                    scene_6_actors
     000B5CFA  ___func_scene_7_actors             scene_7_actors
     000B5CFA  _scene_7_actors                    scene_7_actors
     000B5E8A  ___func_scene_9_actors             scene_9_actors
     000B5E8A  _scene_9_actors                    scene_9_actors
     000B604C  ___func_scene_9_collisions         scene_9_collisions
     000B604C  _scene_9_collisions                scene_9_collisions
     000B61B4  _script_event_player_hitstun_kno   script_event_player_hitstun_
     000B6360  _script_input_1                    script_input_1
     000B64EF  _script_input_10                   script_input_10
     000B667E  _script_input_11                   script_input_11
     000B680D  _script_input_12                   script_input_12
     000B699C  _script_input_13                   script_input_13
ASxxxx Linker V03.00 + NoICE + sdld,  page 86.
Hexadecimal  [32-Bits]

Area                                    Addr        Size        Decimal Bytes (Attributes)
--------------------------------        ----        ----        ------- ----- ------------
_CODE_11                            000B4000    00003FFF =       16383. bytes (REL,CON)

      Value  Global                              Global Defined In Module
      -----  --------------------------------   ------------------------
     000B6B2B  _script_input_5                    script_input_5
     000B6CBA  _script_input_6                    script_input_6
     000B6E49  _script_input_7                    script_input_7
     000B6FD8  _script_input_8                    script_input_8
     000B7167  _script_input_9                    script_input_9
     000B72F6  ___func_spritesheet_5              spritesheet_5
     000B72F6  _spritesheet_5_metasprite_0        spritesheet_5
     000B72FA  _spritesheet_5_metasprite_1        spritesheet_5
     000B7322  _spritesheet_5_metasprite_2        spritesheet_5
     000B734A  _spritesheet_5_metasprite_3        spritesheet_5
     000B7372  _spritesheet_5_metasprite_4        spritesheet_5
     000B739A  _spritesheet_5_metasprite_5        spritesheet_5
     000B73C2  _spritesheet_5_metasprite_6        spritesheet_5
     000B73EA  _spritesheet_5_metasprites         spritesheet_5
     000B7404  _spritesheet_5_animations          spritesheet_5
     000B7424  _spritesheet_5_animations_lookup   spritesheet_5
     000B7428  _spritesheet_5                     spritesheet_5
     000B743B  ___func_tilemap_0                  tilemap_0
     000B743B  _tilemap_0                         tilemap_0
     000B75A3  ___func_tilemap_1                  tilemap_1
     000B75A3  _tilemap_1                         tilemap_1
     000B770B  ___func_tilemap_12                 tilemap_12
     000B770B  _tilemap_12                        tilemap_12
     000B7873  ___func_tilemap_16                 tilemap_16
     000B7873  _tilemap_16                        tilemap_16
     000B79DB  ___func_tilemap_19                 tilemap_19
     000B79DB  _tilemap_19                        tilemap_19
     000B7B43  ___func_tilemap_26                 tilemap_26
     000B7B43  _tilemap_26                        tilemap_26
     000B7CAB  ___func_tileset_10                 tileset_10
     000B7CAB  _tileset_10                        tileset_10
     000B7E8D  ___func_tileset_6                  tileset_6
     000B7E8D  _tileset_6                         tileset_6

ASxxxx Linker V03.00 + NoICE + sdld,  page 87.
Hexadecimal  [32-Bits]

Area                                    Addr        Size        Decimal Bytes (Attributes)
--------------------------------        ----        ----        ------- ----- ------------
_CODE_10                            000A4000    00003FFE =       16382. bytes (REL,CON)

      Value  Global                              Global Defined In Module
      -----  --------------------------------   ------------------------
     000A4000  ___func_scene_10_actors            scene_10_actors
     000A4000  _scene_10_actors                   scene_10_actors
     000A428A  ___func_scene_26_actors            scene_26_actors
     000A428A  _scene_26_actors                   scene_26_actors
     000A44E2  ___func_scene_29_actors            scene_29_actors
     000A44E2  _scene_29_actors                   scene_29_actors
     000A479E  ___func_spritesheet_10             spritesheet_10
     000A479E  _spritesheet_10_metasprite_0       spritesheet_10
     000A47A6  _spritesheet_10_metasprite_1       spritesheet_10
     000A47AE  _spritesheet_10_metasprite_2       spritesheet_10
     000A47B6  _spritesheet_10_metasprite_3       spritesheet_10
     000A47BE  _spritesheet_10_metasprite_4       spritesheet_10
     000A47C6  _spritesheet_10_metasprite_5       spritesheet_10
     000A47CE  _spritesheet_10_metasprite_6       spritesheet_10
     000A47D6  _spritesheet_10_metasprite_7       spritesheet_10
     000A47DE  _spritesheet_10_metasprite_8       spritesheet_10
     000A47E6  _spritesheet_10_metasprite_9       spritesheet_10
     000A47EE  _spritesheet_10_metasprite_10      spritesheet_10
     000A47F6  _spritesheet_10_metasprite_11      spritesheet_10
     000A47FE  _spritesheet_10_metasprites        spritesheet_10
     000A481E  _spritesheet_10_animations         spritesheet_10
     000A482E  _spritesheet_10_animations_looku   spritesheet_10
     000A4830  _spritesheet_10                    spritesheet_10
     000A4843  ___func_spritesheet_6              spritesheet_6
     000A4843  _spritesheet_6_metasprite_0        spritesheet_6
     000A4857  _spritesheet_6_metasprite_1        spritesheet_6
     000A486B  _spritesheet_6_metasprite_2        spritesheet_6
     000A487F  _spritesheet_6_metasprite_3        spritesheet_6
     000A4893  _spritesheet_6_metasprite_4        spritesheet_6
     000A48A7  _spritesheet_6_metasprite_5        spritesheet_6
     000A48BB  _spritesheet_6_metasprite_6        spritesheet_6
     000A48BF  _spritesheet_6_metasprite_7        spritesheet_6
     000A48D3  _spritesheet_6_metasprite_8        spritesheet_6
     000A48E7  _spritesheet_6_metasprite_9        spritesheet_6
     000A48FB  _spritesheet_6_metasprite_10       spritesheet_6
     000A490F  _spritesheet_6_metasprite_11       spritesheet_6
     000A4923  _spritesheet_6_metasprite_12       spritesheet_6
     000A4937  _spritesheet_6_metasprite_13       spritesheet_6
     000A494B  _spritesheet_6_metasprite_14       spritesheet_6
     000A495F  _spritesheet_6_metasprite_15       spritesheet_6
     000A4977  _spritesheet_6_metasprite_16       spritesheet_6
     000A498F  _spritesheet_6_metasprite_17       spritesheet_6
     000A49A7  _spritesheet_6_metasprite_18       spritesheet_6
     000A49BF  _spritesheet_6_metasprite_19       spritesheet_6
     000A49D7  _spritesheet_6_metasprite_20       spritesheet_6
     000A49EF  _spritesheet_6_metasprite_21       spritesheet_6
     000A4A03  _spritesheet_6_metasprite_22       spritesheet_6
     000A4A17  _spritesheet_6_metasprite_23       spritesheet_6
     000A4A2B  _spritesheet_6_metasprite_24       spritesheet_6
     000A4A3F  _spritesheet_6_metasprites         spritesheet_6
ASxxxx Linker V03.00 + NoICE + sdld,  page 88.
Hexadecimal  [32-Bits]

Area                                    Addr        Size        Decimal Bytes (Attributes)
--------------------------------        ----        ----        ------- ----- ------------
_CODE_10                            000A4000    00003FFE =       16382. bytes (REL,CON)

      Value  Global                              Global Defined In Module
      -----  --------------------------------   ------------------------
     000A4A7D  _spritesheet_6_animations          spritesheet_6
     000A4ACD  _spritesheet_6_animations_lookup   spritesheet_6
     000A4AD7  _spritesheet_6                     spritesheet_6
     000A4AEA  ___func_tilemap_5                  tilemap_5
     000A4AEA  _tilemap_5                         tilemap_5
     000A4DBA  ___func_tilemap_6                  tilemap_6
     000A4DBA  _tilemap_6                         tilemap_6
     000A508A  ___func_tilemap_attr_12            tilemap_attr_12
     000A508A  _tilemap_attr_12                   tilemap_attr_12
     000A535A  ___func_tilemap_attr_13            tilemap_attr_13
     000A535A  _tilemap_attr_13                   tilemap_attr_13
     000A562A  ___func_tilemap_attr_15            tilemap_attr_15
     000A562A  _tilemap_attr_15                   tilemap_attr_15
     000A58FA  ___func_tilemap_attr_16            tilemap_attr_16
     000A58FA  _tilemap_attr_16                   tilemap_attr_16
     000A5BCA  ___func_tilemap_attr_19            tilemap_attr_19
     000A5BCA  _tilemap_attr_19                   tilemap_attr_19
     000A5E9A  ___func_tilemap_attr_20            tilemap_attr_20
     000A5E9A  _tilemap_attr_20                   tilemap_attr_20
     000A616A  ___func_tilemap_attr_22            tilemap_attr_22
     000A616A  _tilemap_attr_22                   tilemap_attr_22
     000A643A  ___func_tilemap_attr_23            tilemap_attr_23
     000A643A  _tilemap_attr_23                   tilemap_attr_23
     000A670A  ___func_tilemap_attr_25            tilemap_attr_25
     000A670A  _tilemap_attr_25                   tilemap_attr_25
     000A69DA  ___func_tilemap_attr_26            tilemap_attr_26
     000A69DA  _tilemap_attr_26                   tilemap_attr_26
     000A6CAA  ___func_tilemap_attr_29            tilemap_attr_29
     000A6CAA  _tilemap_attr_29                   tilemap_attr_29
     000A6F7A  ___func_tilemap_attr_31            tilemap_attr_31
     000A6F7A  _tilemap_attr_31                   tilemap_attr_31
     000A724A  ___func_tilemap_attr_4             tilemap_attr_4
     000A724A  _tilemap_attr_4                    tilemap_attr_4
     000A751A  ___func_tilemap_attr_7             tilemap_attr_7
     000A751A  _tilemap_attr_7                    tilemap_attr_7
     000A77EA  ___func_tilemap_attr_8             tilemap_attr_8
     000A77EA  _tilemap_attr_8                    tilemap_attr_8
     000A7ABA  ___func_tileset_12                 tileset_12
     000A7ABA  _tileset_12                        tileset_12
     000A7D7C  ___func_tileset_25                 tileset_25
     000A7D7C  _tileset_25                        tileset_25

ASxxxx Linker V03.00 + NoICE + sdld,  page 89.
Hexadecimal  [32-Bits]

Area                                    Addr        Size        Decimal Bytes (Attributes)
--------------------------------        ----        ----        ------- ----- ------------
_CODE_8                             00084000    00003FFE =       16382. bytes (REL,CON)

      Value  Global                              Global Defined In Module
      -----  --------------------------------   ------------------------
     00084000  ___func_scene_12_collisions        scene_12_collisions
     00084000  _scene_12_collisions               scene_12_collisions
     000842D0  ___func_scene_13_collisions        scene_13_collisions
     000842D0  _scene_13_collisions               scene_13_collisions
     000845A0  ___func_scene_16_collisions        scene_16_collisions
     000845A0  _scene_16_collisions               scene_16_collisions
     000848DC  ___func_scene_18_collisions        scene_18_collisions
     000848DC  _scene_18_collisions               scene_18_collisions
     00084BAC  ___func_scene_20_actors            scene_20_actors
     00084BAC  _scene_20_actors                   scene_20_actors
     00084ECC  ___func_scene_20_collisions        scene_20_collisions
     00084ECC  _scene_20_collisions               scene_20_collisions
     0008519C  ___func_scene_21_collisions        scene_21_collisions
     0008519C  _scene_21_collisions               scene_21_collisions
     0008546C  ___func_scene_23_collisions        scene_23_collisions
     0008546C  _scene_23_collisions               scene_23_collisions
     0008573C  ___func_scene_25_actors            scene_25_actors
     0008573C  _scene_25_actors                   scene_25_actors
     00085994  ___func_scene_30_actors            scene_30_actors
     00085994  _scene_30_actors                   scene_30_actors
     00085C82  ___func_scene_4_collisions         scene_4_collisions
     00085C82  _scene_4_collisions                scene_4_collisions
     00085F64  _script_s0a4_interact              script_s0a4_interact
     00085F86  ___func_tilemap_25                 tilemap_25
     00085F86  _tilemap_25                        tilemap_25
     000862C2  ___func_tilemap_28                 tilemap_28
     000862C2  _tilemap_28                        tilemap_28
     000865A4  ___func_tilemap_7                  tilemap_7
     000865A4  _tilemap_7                         tilemap_7
     000869DC  ___func_tilemap_attr_17            tilemap_attr_17
     000869DC  _tilemap_attr_17                   tilemap_attr_17
     00086E14  ___func_tilemap_attr_24            tilemap_attr_24
     00086E14  _tilemap_attr_24                   tilemap_attr_24
     0008724C  ___func_tilemap_attr_27            tilemap_attr_27
     0008724C  _tilemap_attr_27                   tilemap_attr_27
     00087588  ___func_tilemap_attr_30            tilemap_attr_30
     00087588  _tilemap_attr_30                   tilemap_attr_30
     0008786A  ___func_tilemap_attr_5             tilemap_attr_5
     0008786A  _tilemap_attr_5                    tilemap_attr_5
     00087BC6  ___func_tilemap_attr_9             tilemap_attr_9
     00087BC6  _tilemap_attr_9                    tilemap_attr_9

ASxxxx Linker V03.00 + NoICE + sdld,  page 90.
Hexadecimal  [32-Bits]

Area                                    Addr        Size        Decimal Bytes (Attributes)
--------------------------------        ----        ----        ------- ----- ------------
_CODE_9                             00094000    00003FFD =       16381. bytes (REL,CON)

      Value  Global                              Global Defined In Module
      -----  --------------------------------   ------------------------
     00094000  ___func_scene_24_collisions        scene_24_collisions
     00094000  _scene_24_collisions               scene_24_collisions
     000942D0  ___func_scene_26_collisions        scene_26_collisions
     000942D0  _scene_26_collisions               scene_26_collisions
     000945A0  ___func_scene_28_collisions        scene_28_collisions
     000945A0  _scene_28_collisions               scene_28_collisions
     00094870  ___func_scene_29_collisions        scene_29_collisions
     00094870  _scene_29_collisions               scene_29_collisions
     00094B40  ___func_scene_3_collisions         scene_3_collisions
     00094B40  _scene_3_collisions                scene_3_collisions
     00094E10  ___func_scene_32_collisions        scene_32_collisions
     00094E10  _scene_32_collisions               scene_32_collisions
     000950E0  ___func_scene_5_collisions         scene_5_collisions
     000950E0  _scene_5_collisions                scene_5_collisions
     000953B0  ___func_scene_7_collisions         scene_7_collisions
     000953B0  _scene_7_collisions                scene_7_collisions
     00095680  ___func_scene_8_collisions         scene_8_collisions
     00095680  _scene_8_collisions                scene_8_collisions
     00095950  ___func_spritesheet_18             spritesheet_18
     00095950  _spritesheet_18_metasprite_0       spritesheet_18
     00095978  _spritesheet_18_metasprite_1       spritesheet_18
     000959A0  _spritesheet_18_metasprite_2       spritesheet_18
     000959C8  _spritesheet_18_metasprite_3       spritesheet_18
     000959F0  _spritesheet_18_metasprite_4       spritesheet_18
     00095A18  _spritesheet_18_metasprite_5       spritesheet_18
     00095A40  _spritesheet_18_metasprite_6       spritesheet_18
     00095A68  _spritesheet_18_metasprite_7       spritesheet_18
     00095A90  _spritesheet_18_metasprite_8       spritesheet_18
     00095AB4  _spritesheet_18_metasprite_9       spritesheet_18
     00095AB8  _spritesheet_18_metasprite_10      spritesheet_18
     00095AE0  _spritesheet_18_metasprite_11      spritesheet_18
     00095B08  _spritesheet_18_metasprites        spritesheet_18
     00095B24  _spritesheet_18_animations         spritesheet_18
     00095B54  _spritesheet_18_animations_looku   spritesheet_18
     00095B5A  _spritesheet_18                    spritesheet_18
     00095B6D  ___func_tilemap_10                 tilemap_10
     00095B6D  _tilemap_10                        tilemap_10
     00095E3D  ___func_tilemap_11                 tilemap_11
     00095E3D  _tilemap_11                        tilemap_11
     0009610D  ___func_tilemap_13                 tilemap_13
     0009610D  _tilemap_13                        tilemap_13
     000963DD  ___func_tilemap_14                 tilemap_14
     000963DD  _tilemap_14                        tilemap_14
     000966AD  ___func_tilemap_17                 tilemap_17
     000966AD  _tilemap_17                        tilemap_17
     0009697D  ___func_tilemap_18                 tilemap_18
     0009697D  _tilemap_18                        tilemap_18
     00096C4D  ___func_tilemap_2                  tilemap_2
     00096C4D  _tilemap_2                         tilemap_2
     00096F1D  ___func_tilemap_20                 tilemap_20
ASxxxx Linker V03.00 + NoICE + sdld,  page 91.
Hexadecimal  [32-Bits]

Area                                    Addr        Size        Decimal Bytes (Attributes)
--------------------------------        ----        ----        ------- ----- ------------
_CODE_9                             00094000    00003FFD =       16381. bytes (REL,CON)

      Value  Global                              Global Defined In Module
      -----  --------------------------------   ------------------------
     00096F1D  _tilemap_20                        tilemap_20
     000971ED  ___func_tilemap_21                 tilemap_21
     000971ED  _tilemap_21                        tilemap_21
     000974BD  ___func_tilemap_23                 tilemap_23
     000974BD  _tilemap_23                        tilemap_23
     0009778D  ___func_tilemap_24                 tilemap_24
     0009778D  _tilemap_24                        tilemap_24
     00097A5D  ___func_tilemap_27                 tilemap_27
     00097A5D  _tilemap_27                        tilemap_27
     00097D2D  ___func_tilemap_29                 tilemap_29
     00097D2D  _tilemap_29                        tilemap_29

ASxxxx Linker V03.00 + NoICE + sdld,  page 92.
Hexadecimal  [32-Bits]

Area                                    Addr        Size        Decimal Bytes (Attributes)
--------------------------------        ----        ----        ------- ----- ------------
_CODE_5                             00054000    00004000 =       16384. bytes (REL,CON)

      Value  Global                              Global Defined In Module
      -----  --------------------------------   ------------------------
     00054000  ___func_scene_6_collisions         scene_6_collisions
     00054000  _scene_6_collisions                scene_6_collisions
     0005435C  _script_s9a0_update                script_s9a0_update
     000552E3  _spritesheet_none_metasprite       spritesheet_none
     000552E7  _spritesheet_none_metasprites      spritesheet_none
     000552E9  _spritesheet_none                  spritesheet_none
     000552FC  ___func_tileset_0                  tileset_0
     000552FC  _tileset_0                         tileset_0
     0005697E  ___func_tileset_1                  tileset_1
     0005697E  _tileset_1                         tileset_1

ASxxxx Linker V03.00 + NoICE + sdld,  page 93.
Hexadecimal  [32-Bits]

Area                                    Addr        Size        Decimal Bytes (Attributes)
--------------------------------        ----        ----        ------- ----- ------------
_CODE_3                             00034000    00002ADB =       10971. bytes (REL,CON)

      Value  Global                              Global Defined In Module
      -----  --------------------------------   ------------------------
     00034000  _adventure_init                    adventure
     00034015  _adventure_update                  adventure
     0003475D  _logo_init                         logo
     0003476D  _logo_update                       logo
     0003476E  _platform_init                     platform
     00034925  _platform_update                   platform
     00035956  _pointnclick_init                  pointnclick
     0003598F  _pointnclick_update                pointnclick
     00035C9B  _shmup_init                        shmup
     00035D37  _shmup_update                      shmup
     000363CD  _topdown_init                      topdown
     00036464  _topdown_update                    topdown
ASxxxx Linker V03.00 + NoICE + sdld,  page 94.
Hexadecimal  [32-Bits]

Area                                    Addr        Size        Decimal Bytes (Attributes)
--------------------------------        ----        ----        ------- ----- ------------
_HEADER_LCD0                        00000000    00000003 =           3. bytes (ABS,CON)

      Value  Global                              Global Defined In Module
      -----  --------------------------------   ------------------------
ASxxxx Linker V03.00 + NoICE + sdld,  page 95.

Files Linked                              [ module(s) ]

C:\Users\chris\AppData\Local\Temp/_gbstools/gbdk/lib/small/asxxxx/gb/crt0.o
                                          [ Runtime ]
C:/Users/chris/AppData/Local/Temp/_gbsbuild/obj/absolute.rel
                                          [ absolute ]
C:/Users/chris/AppData/Local/Temp/_gbsbuild/obj/actor.rel
                                          [ actor ]
C:/Users/chris/AppData/Local/Temp/_gbsbuild/obj/bankdata.rel
                                          [ bankdata ]
C:/Users/chris/AppData/Local/Temp/_gbsbuild/obj/bootstrap.rel
                                          [  ]
C:/Users/chris/AppData/Local/Temp/_gbsbuild/obj/camera.rel
                                          [ camera ]
C:/Users/chris/AppData/Local/Temp/_gbsbuild/obj/core.rel
                                          [ core ]
C:/Users/chris/AppData/Local/Temp/_gbsbuild/obj/crash_handler.rel
                                          [  ]
C:/Users/chris/AppData/Local/Temp/_gbsbuild/obj/data_manager.rel
                                          [ data_manager ]
C:/Users/chris/AppData/Local/Temp/_gbsbuild/obj/events.rel
                                          [ events ]
C:/Users/chris/AppData/Local/Temp/_gbsbuild/obj/fade_manager.rel
                                          [ fade_manager ]
C:/Users/chris/AppData/Local/Temp/_gbsbuild/obj/flasher_s.rel
                                          [  ]
C:/Users/chris/AppData/Local/Temp/_gbsbuild/obj/flasher.rel
                                          [ flasher ]
C:/Users/chris/AppData/Local/Temp/_gbsbuild/obj/game_time.rel
                                          [ game_time ]
C:/Users/chris/AppData/Local/Temp/_gbsbuild/obj/input.rel
                                          [ input ]
C:/Users/chris/AppData/Local/Temp/_gbsbuild/obj/interrupt_sio.rel
                                          [  ]
C:/Users/chris/AppData/Local/Temp/_gbsbuild/obj/interrupt_timer.rel
                                          [  ]
C:/Users/chris/AppData/Local/Temp/_gbsbuild/obj/interrupts.rel
                                          [ interrupts ]
C:/Users/chris/AppData/Local/Temp/_gbsbuild/obj/load_save.rel
                                          [ load_save ]
C:/Users/chris/AppData/Local/Temp/_gbsbuild/obj/math.rel
                                          [ math ]
C:/Users/chris/AppData/Local/Temp/_gbsbuild/obj/music_manager.rel
                                          [ music_manager ]
C:/Users/chris/AppData/Local/Temp/_gbsbuild/obj/oam_utils.rel
                                          [ OAM_utils ]
C:/Users/chris/AppData/Local/Temp/_gbsbuild/obj/palette.rel
                                          [ palette ]
C:/Users/chris/AppData/Local/Temp/_gbsbuild/obj/parallax.rel
                                          [ parallax ]
C:/Users/chris/AppData/Local/Temp/_gbsbuild/obj/projectiles.rel
                                          [ projectiles ]
C:/Users/chris/AppData/Local/Temp/_gbsbuild/obj/sample_player.rel
                                          [ sample_player ]
C:/Users/chris/AppData/Local/Temp/_gbsbuild/obj/scroll_a.rel
                                          [  ]
C:/Users/chris/AppData/Local/Temp/_gbsbuild/obj/scroll.rel
                                          [ scroll ]
C:/Users/chris/AppData/Local/Temp/_gbsbuild/obj/set_tile_submap.rel
                                          [  ]
C:/Users/chris/AppData/Local/Temp/_gbsbuild/obj/sgb_border.rel
                                          [ sgb_border ]
C:/Users/chris/AppData/Local/Temp/_gbsbuild/obj/sio.rel
                                          [ sio ]
C:/Users/chris/AppData/Local/Temp/_gbsbuild/obj/states_caller.rel
                                          [  ]
C:/Users/chris/AppData/Local/Temp/_gbsbuild/obj/system.rel
                                          [ system ]
C:/Users/chris/AppData/Local/Temp/_gbsbuild/obj/trigger.rel
                                          [ trigger ]
C:/Users/chris/AppData/Local/Temp/_gbsbuild/obj/ui_a.rel
                                          [  ]
C:/Users/chris/AppData/Local/Temp/_gbsbuild/obj/ui.rel
                                          [ ui ]
C:/Users/chris/AppData/Local/Temp/_gbsbuild/obj/vm_actor.rel
                                          [ vm_actor ]
C:/Users/chris/AppData/Local/Temp/_gbsbuild/obj/vm_camera.rel
                                          [ vm_camera ]
C:/Users/chris/AppData/Local/Temp/_gbsbuild/obj/vm_gameboy.rel
                                          [ vm_gameboy ]
C:/Users/chris/AppData/Local/Temp/_gbsbuild/obj/vm_instructions.rel
                                          [ vm_instructions ]
C:/Users/chris/AppData/Local/Temp/_gbsbuild/obj/vm_load_save.rel
                                          [ vm_load_save ]
C:/Users/chris/AppData/Local/Temp/_gbsbuild/obj/vm_math.rel
                                          [ vm_math ]
C:/Users/chris/AppData/Local/Temp/_gbsbuild/obj/vm_music.rel
                                          [ vm_music ]
C:/Users/chris/AppData/Local/Temp/_gbsbuild/obj/vm_palette.rel
                                          [ vm_palette ]
C:/Users/chris/AppData/Local/Temp/_gbsbuild/obj/vm_projectiles.rel
                                          [ vm_projectiles ]
C:/Users/chris/AppData/Local/Temp/_gbsbuild/obj/vm_rtc.rel
                                          [ vm_rtc ]
C:/Users/chris/AppData/Local/Temp/_gbsbuild/obj/vm_scene.rel
                                          [ vm_scene ]
C:/Users/chris/AppData/Local/Temp/_gbsbuild/obj/vm_sgb.rel
                                          [ vm_sgb ]
C:/Users/chris/AppData/Local/Temp/_gbsbuild/obj/vm_sio.rel
                                          [ vm_sio ]
C:/Users/chris/AppData/Local/Temp/_gbsbuild/obj/vm_ui_a.rel
                                          [ vm_ui_a ]
C:/Users/chris/AppData/Local/Temp/_gbsbuild/obj/vm_ui.rel
                                          [ vm_ui ]
C:/Users/chris/AppData/Local/Temp/_gbsbuild/obj/vm.rel
                                          [ vm ]
C:/Users/chris/AppData/Local/Temp/_gbsbuild/obj/background_0.rel
                                          [ background_0 ]
C:/Users/chris/AppData/Local/Temp/_gbsbuild/obj/background_1.rel
                                          [ background_1 ]
C:/Users/chris/AppData/Local/Temp/_gbsbuild/obj/background_10.rel
                                          [ background_10 ]
C:/Users/chris/AppData/Local/Temp/_gbsbuild/obj/background_11.rel
                                          [ background_11 ]
C:/Users/chris/AppData/Local/Temp/_gbsbuild/obj/background_12.rel
                                          [ background_12 ]
C:/Users/chris/AppData/Local/Temp/_gbsbuild/obj/background_13.rel
                                          [ background_13 ]
C:/Users/chris/AppData/Local/Temp/_gbsbuild/obj/background_14.rel
                                          [ background_14 ]
C:/Users/chris/AppData/Local/Temp/_gbsbuild/obj/background_15.rel
                                          [ background_15 ]
C:/Users/chris/AppData/Local/Temp/_gbsbuild/obj/background_16.rel
                                          [ background_16 ]
C:/Users/chris/AppData/Local/Temp/_gbsbuild/obj/background_17.rel
                                          [ background_17 ]
C:/Users/chris/AppData/Local/Temp/_gbsbuild/obj/background_18.rel
                                          [ background_18 ]
C:/Users/chris/AppData/Local/Temp/_gbsbuild/obj/background_19.rel
                                          [ background_19 ]
C:/Users/chris/AppData/Local/Temp/_gbsbuild/obj/background_2.rel
                                          [ background_2 ]
C:/Users/chris/AppData/Local/Temp/_gbsbuild/obj/background_20.rel
                                          [ background_20 ]
C:/Users/chris/AppData/Local/Temp/_gbsbuild/obj/background_21.rel
                                          [ background_21 ]
C:/Users/chris/AppData/Local/Temp/_gbsbuild/obj/background_22.rel
                                          [ background_22 ]
C:/Users/chris/AppData/Local/Temp/_gbsbuild/obj/background_23.rel
                                          [ background_23 ]
C:/Users/chris/AppData/Local/Temp/_gbsbuild/obj/background_24.rel
                                          [ background_24 ]
C:/Users/chris/AppData/Local/Temp/_gbsbuild/obj/background_25.rel
                                          [ background_25 ]
C:/Users/chris/AppData/Local/Temp/_gbsbuild/obj/background_26.rel
                                          [ background_26 ]
C:/Users/chris/AppData/Local/Temp/_gbsbuild/obj/background_27.rel
                                          [ background_27 ]
C:/Users/chris/AppData/Local/Temp/_gbsbuild/obj/background_28.rel
                                          [ background_28 ]
C:/Users/chris/AppData/Local/Temp/_gbsbuild/obj/background_29.rel
                                          [ background_29 ]
C:/Users/chris/AppData/Local/Temp/_gbsbuild/obj/background_3.rel
                                          [ background_3 ]
C:/Users/chris/AppData/Local/Temp/_gbsbuild/obj/background_30.rel
                                          [ background_30 ]
C:/Users/chris/AppData/Local/Temp/_gbsbuild/obj/background_31.rel
                                          [ background_31 ]
C:/Users/chris/AppData/Local/Temp/_gbsbuild/obj/background_32.rel
                                          [ background_32 ]
C:/Users/chris/AppData/Local/Temp/_gbsbuild/obj/background_4.rel
                                          [ background_4 ]
C:/Users/chris/AppData/Local/Temp/_gbsbuild/obj/background_5.rel
                                          [ background_5 ]
C:/Users/chris/AppData/Local/Temp/_gbsbuild/obj/background_6.rel
                                          [ background_6 ]
C:/Users/chris/AppData/Local/Temp/_gbsbuild/obj/background_7.rel
                                          [ background_7 ]
C:/Users/chris/AppData/Local/Temp/_gbsbuild/obj/background_8.rel
                                          [ background_8 ]
C:/Users/chris/AppData/Local/Temp/_gbsbuild/obj/background_9.rel
                                          [ background_9 ]
C:/Users/chris/AppData/Local/Temp/_gbsbuild/obj/cursor_image.rel
                                          [ cursor_image ]
C:/Users/chris/AppData/Local/Temp/_gbsbuild/obj/font_0.rel
                                          [ font_0 ]
C:/Users/chris/AppData/Local/Temp/_gbsbuild/obj/frame_image.rel
                                          [ frame_image ]
C:/Users/chris/AppData/Local/Temp/_gbsbuild/obj/music_track_0__Data.rel
                                          [ music_track_0__Data ]
C:/Users/chris/AppData/Local/Temp/_gbsbuild/obj/music_track_1__Data.rel
                                          [ music_track_1__Data ]
C:/Users/chris/AppData/Local/Temp/_gbsbuild/obj/music_track_2__Data.rel
                                          [ music_track_2__Data ]
C:/Users/chris/AppData/Local/Temp/_gbsbuild/obj/music_track_3__Data.rel
                                          [ music_track_3__Data ]
C:/Users/chris/AppData/Local/Temp/_gbsbuild/obj/music_track_4__Data.rel
                                          [ music_track_4__Data ]
C:/Users/chris/AppData/Local/Temp/_gbsbuild/obj/palette_0.rel
                                          [ palette_0 ]
C:/Users/chris/AppData/Local/Temp/_gbsbuild/obj/palette_1.rel
                                          [ palette_1 ]
C:/Users/chris/AppData/Local/Temp/_gbsbuild/obj/palette_2.rel
                                          [ palette_2 ]
C:/Users/chris/AppData/Local/Temp/_gbsbuild/obj/palette_3.rel
                                          [ palette_3 ]
C:/Users/chris/AppData/Local/Temp/_gbsbuild/obj/palette_4.rel
                                          [ palette_4 ]
C:/Users/chris/AppData/Local/Temp/_gbsbuild/obj/scene_0_actors.rel
                                          [ scene_0_actors ]
C:/Users/chris/AppData/Local/Temp/_gbsbuild/obj/scene_0_collisions.rel
                                          [ scene_0_collisions ]
C:/Users/chris/AppData/Local/Temp/_gbsbuild/obj/scene_0_projectiles.rel
                                          [ scene_0_projectiles ]
C:/Users/chris/AppData/Local/Temp/_gbsbuild/obj/scene_0_sprites.rel
                                          [ scene_0_sprites ]
C:/Users/chris/AppData/Local/Temp/_gbsbuild/obj/scene_0_triggers.rel
                                          [ scene_0_triggers ]
C:/Users/chris/AppData/Local/Temp/_gbsbuild/obj/scene_0.rel
                                          [ scene_0 ]
C:/Users/chris/AppData/Local/Temp/_gbsbuild/obj/scene_1_actors.rel
                                          [ scene_1_actors ]
C:/Users/chris/AppData/Local/Temp/_gbsbuild/obj/scene_1_collisions.rel
                                          [ scene_1_collisions ]
C:/Users/chris/AppData/Local/Temp/_gbsbuild/obj/scene_1_projectiles.rel
                                          [ scene_1_projectiles ]
C:/Users/chris/AppData/Local/Temp/_gbsbuild/obj/scene_1_sprites.rel
                                          [ scene_1_sprites ]
C:/Users/chris/AppData/Local/Temp/_gbsbuild/obj/scene_1.rel
                                          [ scene_1 ]
C:/Users/chris/AppData/Local/Temp/_gbsbuild/obj/scene_10_actors.rel
                                          [ scene_10_actors ]
C:/Users/chris/AppData/Local/Temp/_gbsbuild/obj/scene_10_collisions.rel
                                          [ scene_10_collisions ]
C:/Users/chris/AppData/Local/Temp/_gbsbuild/obj/scene_10_projectiles.rel
                                          [ scene_10_projectiles ]
C:/Users/chris/AppData/Local/Temp/_gbsbuild/obj/scene_10_sprites.rel
                                          [ scene_10_sprites ]
C:/Users/chris/AppData/Local/Temp/_gbsbuild/obj/scene_10_triggers.rel
                                          [ scene_10_triggers ]
C:/Users/chris/AppData/Local/Temp/_gbsbuild/obj/scene_10.rel
                                          [ scene_10 ]
C:/Users/chris/AppData/Local/Temp/_gbsbuild/obj/scene_11_actors.rel
                                          [ scene_11_actors ]
C:/Users/chris/AppData/Local/Temp/_gbsbuild/obj/scene_11_collisions.rel
                                          [ scene_11_collisions ]
C:/Users/chris/AppData/Local/Temp/_gbsbuild/obj/scene_11_projectiles.rel
                                          [ scene_11_projectiles ]
C:/Users/chris/AppData/Local/Temp/_gbsbuild/obj/scene_11_sprites.rel
                                          [ scene_11_sprites ]
C:/Users/chris/AppData/Local/Temp/_gbsbuild/obj/scene_11_triggers.rel
                                          [ scene_11_triggers ]
C:/Users/chris/AppData/Local/Temp/_gbsbuild/obj/scene_11.rel
                                          [ scene_11 ]
C:/Users/chris/AppData/Local/Temp/_gbsbuild/obj/scene_12_actors.rel
                                          [ scene_12_actors ]
C:/Users/chris/AppData/Local/Temp/_gbsbuild/obj/scene_12_collisions.rel
                                          [ scene_12_collisions ]
C:/Users/chris/AppData/Local/Temp/_gbsbuild/obj/scene_12_projectiles.rel
                                          [ scene_12_projectiles ]
C:/Users/chris/AppData/Local/Temp/_gbsbuild/obj/scene_12_sprites.rel
                                          [ scene_12_sprites ]
C:/Users/chris/AppData/Local/Temp/_gbsbuild/obj/scene_12_triggers.rel
                                          [ scene_12_triggers ]
C:/Users/chris/AppData/Local/Temp/_gbsbuild/obj/scene_12.rel
                                          [ scene_12 ]
C:/Users/chris/AppData/Local/Temp/_gbsbuild/obj/scene_13_actors.rel
                                          [ scene_13_actors ]
C:/Users/chris/AppData/Local/Temp/_gbsbuild/obj/scene_13_collisions.rel
                                          [ scene_13_collisions ]
C:/Users/chris/AppData/Local/Temp/_gbsbuild/obj/scene_13_projectiles.rel
                                          [ scene_13_projectiles ]
C:/Users/chris/AppData/Local/Temp/_gbsbuild/obj/scene_13_sprites.rel
                                          [ scene_13_sprites ]
C:/Users/chris/AppData/Local/Temp/_gbsbuild/obj/scene_13_triggers.rel
                                          [ scene_13_triggers ]
C:/Users/chris/AppData/Local/Temp/_gbsbuild/obj/scene_13.rel
                                          [ scene_13 ]
C:/Users/chris/AppData/Local/Temp/_gbsbuild/obj/scene_14_collisions.rel
                                          [ scene_14_collisions ]
C:/Users/chris/AppData/Local/Temp/_gbsbuild/obj/scene_14.rel
                                          [ scene_14 ]
C:/Users/chris/AppData/Local/Temp/_gbsbuild/obj/scene_15_collisions.rel
                                          [ scene_15_collisions ]
C:/Users/chris/AppData/Local/Temp/_gbsbuild/obj/scene_15.rel
                                          [ scene_15 ]
C:/Users/chris/AppData/Local/Temp/_gbsbuild/obj/scene_16_actors.rel
                                          [ scene_16_actors ]
C:/Users/chris/AppData/Local/Temp/_gbsbuild/obj/scene_16_collisions.rel
                                          [ scene_16_collisions ]
C:/Users/chris/AppData/Local/Temp/_gbsbuild/obj/scene_16_projectiles.rel
                                          [ scene_16_projectiles ]
C:/Users/chris/AppData/Local/Temp/_gbsbuild/obj/scene_16_sprites.rel
                                          [ scene_16_sprites ]
C:/Users/chris/AppData/Local/Temp/_gbsbuild/obj/scene_16_triggers.rel
                                          [ scene_16_triggers ]
C:/Users/chris/AppData/Local/Temp/_gbsbuild/obj/scene_16.rel
                                          [ scene_16 ]
C:/Users/chris/AppData/Local/Temp/_gbsbuild/obj/scene_17_actors.rel
                                          [ scene_17_actors ]
C:/Users/chris/AppData/Local/Temp/_gbsbuild/obj/scene_17_collisions.rel
                                          [ scene_17_collisions ]
C:/Users/chris/AppData/Local/Temp/_gbsbuild/obj/scene_17_projectiles.rel
                                          [ scene_17_projectiles ]
C:/Users/chris/AppData/Local/Temp/_gbsbuild/obj/scene_17_sprites.rel
                                          [ scene_17_sprites ]
C:/Users/chris/AppData/Local/Temp/_gbsbuild/obj/scene_17_triggers.rel
                                          [ scene_17_triggers ]
C:/Users/chris/AppData/Local/Temp/_gbsbuild/obj/scene_17.rel
                                          [ scene_17 ]
C:/Users/chris/AppData/Local/Temp/_gbsbuild/obj/scene_18_actors.rel
                                          [ scene_18_actors ]
C:/Users/chris/AppData/Local/Temp/_gbsbuild/obj/scene_18_collisions.rel
                                          [ scene_18_collisions ]
C:/Users/chris/AppData/Local/Temp/_gbsbuild/obj/scene_18_projectiles.rel
                                          [ scene_18_projectiles ]
C:/Users/chris/AppData/Local/Temp/_gbsbuild/obj/scene_18_sprites.rel
                                          [ scene_18_sprites ]
C:/Users/chris/AppData/Local/Temp/_gbsbuild/obj/scene_18_triggers.rel
                                          [ scene_18_triggers ]
C:/Users/chris/AppData/Local/Temp/_gbsbuild/obj/scene_18.rel
                                          [ scene_18 ]
C:/Users/chris/AppData/Local/Temp/_gbsbuild/obj/scene_19_actors.rel
                                          [ scene_19_actors ]
C:/Users/chris/AppData/Local/Temp/_gbsbuild/obj/scene_19_collisions.rel
                                          [ scene_19_collisions ]
C:/Users/chris/AppData/Local/Temp/_gbsbuild/obj/scene_19_projectiles.rel
                                          [ scene_19_projectiles ]
C:/Users/chris/AppData/Local/Temp/_gbsbuild/obj/scene_19_sprites.rel
                                          [ scene_19_sprites ]
C:/Users/chris/AppData/Local/Temp/_gbsbuild/obj/scene_19_triggers.rel
                                          [ scene_19_triggers ]
C:/Users/chris/AppData/Local/Temp/_gbsbuild/obj/scene_19.rel
                                          [ scene_19 ]
C:/Users/chris/AppData/Local/Temp/_gbsbuild/obj/scene_2_collisions.rel
                                          [ scene_2_collisions ]
C:/Users/chris/AppData/Local/Temp/_gbsbuild/obj/scene_2.rel
                                          [ scene_2 ]
C:/Users/chris/AppData/Local/Temp/_gbsbuild/obj/scene_20_actors.rel
                                          [ scene_20_actors ]
C:/Users/chris/AppData/Local/Temp/_gbsbuild/obj/scene_20_collisions.rel
                                          [ scene_20_collisions ]
C:/Users/chris/AppData/Local/Temp/_gbsbuild/obj/scene_20_projectiles.rel
                                          [ scene_20_projectiles ]
C:/Users/chris/AppData/Local/Temp/_gbsbuild/obj/scene_20_sprites.rel
                                          [ scene_20_sprites ]
C:/Users/chris/AppData/Local/Temp/_gbsbuild/obj/scene_20_triggers.rel
                                          [ scene_20_triggers ]
C:/Users/chris/AppData/Local/Temp/_gbsbuild/obj/scene_20.rel
                                          [ scene_20 ]
C:/Users/chris/AppData/Local/Temp/_gbsbuild/obj/scene_21_actors.rel
                                          [ scene_21_actors ]
C:/Users/chris/AppData/Local/Temp/_gbsbuild/obj/scene_21_collisions.rel
                                          [ scene_21_collisions ]
C:/Users/chris/AppData/Local/Temp/_gbsbuild/obj/scene_21_projectiles.rel
                                          [ scene_21_projectiles ]
C:/Users/chris/AppData/Local/Temp/_gbsbuild/obj/scene_21_sprites.rel
                                          [ scene_21_sprites ]
C:/Users/chris/AppData/Local/Temp/_gbsbuild/obj/scene_21_triggers.rel
                                          [ scene_21_triggers ]
C:/Users/chris/AppData/Local/Temp/_gbsbuild/obj/scene_21.rel
                                          [ scene_21 ]
C:/Users/chris/AppData/Local/Temp/_gbsbuild/obj/scene_22_actors.rel
                                          [ scene_22_actors ]
C:/Users/chris/AppData/Local/Temp/_gbsbuild/obj/scene_22_collisions.rel
                                          [ scene_22_collisions ]
C:/Users/chris/AppData/Local/Temp/_gbsbuild/obj/scene_22_projectiles.rel
                                          [ scene_22_projectiles ]
C:/Users/chris/AppData/Local/Temp/_gbsbuild/obj/scene_22_sprites.rel
                                          [ scene_22_sprites ]
C:/Users/chris/AppData/Local/Temp/_gbsbuild/obj/scene_22_triggers.rel
                                          [ scene_22_triggers ]
C:/Users/chris/AppData/Local/Temp/_gbsbuild/obj/scene_22.rel
                                          [ scene_22 ]
C:/Users/chris/AppData/Local/Temp/_gbsbuild/obj/scene_23_actors.rel
                                          [ scene_23_actors ]
C:/Users/chris/AppData/Local/Temp/_gbsbuild/obj/scene_23_collisions.rel
                                          [ scene_23_collisions ]
C:/Users/chris/AppData/Local/Temp/_gbsbuild/obj/scene_23_projectiles.rel
                                          [ scene_23_projectiles ]
C:/Users/chris/AppData/Local/Temp/_gbsbuild/obj/scene_23_sprites.rel
                                          [ scene_23_sprites ]
C:/Users/chris/AppData/Local/Temp/_gbsbuild/obj/scene_23_triggers.rel
                                          [ scene_23_triggers ]
C:/Users/chris/AppData/Local/Temp/_gbsbuild/obj/scene_23.rel
                                          [ scene_23 ]
C:/Users/chris/AppData/Local/Temp/_gbsbuild/obj/scene_24_actors.rel
                                          [ scene_24_actors ]
C:/Users/chris/AppData/Local/Temp/_gbsbuild/obj/scene_24_collisions.rel
                                          [ scene_24_collisions ]
C:/Users/chris/AppData/Local/Temp/_gbsbuild/obj/scene_24_projectiles.rel
                                          [ scene_24_projectiles ]
C:/Users/chris/AppData/Local/Temp/_gbsbuild/obj/scene_24_sprites.rel
                                          [ scene_24_sprites ]
C:/Users/chris/AppData/Local/Temp/_gbsbuild/obj/scene_24_triggers.rel
                                          [ scene_24_triggers ]
C:/Users/chris/AppData/Local/Temp/_gbsbuild/obj/scene_24.rel
                                          [ scene_24 ]
C:/Users/chris/AppData/Local/Temp/_gbsbuild/obj/scene_25_actors.rel
                                          [ scene_25_actors ]
C:/Users/chris/AppData/Local/Temp/_gbsbuild/obj/scene_25_collisions.rel
                                          [ scene_25_collisions ]
C:/Users/chris/AppData/Local/Temp/_gbsbuild/obj/scene_25_projectiles.rel
                                          [ scene_25_projectiles ]
C:/Users/chris/AppData/Local/Temp/_gbsbuild/obj/scene_25_sprites.rel
                                          [ scene_25_sprites ]
C:/Users/chris/AppData/Local/Temp/_gbsbuild/obj/scene_25_triggers.rel
                                          [ scene_25_triggers ]
C:/Users/chris/AppData/Local/Temp/_gbsbuild/obj/scene_25.rel
                                          [ scene_25 ]
C:/Users/chris/AppData/Local/Temp/_gbsbuild/obj/scene_26_actors.rel
                                          [ scene_26_actors ]
C:/Users/chris/AppData/Local/Temp/_gbsbuild/obj/scene_26_collisions.rel
                                          [ scene_26_collisions ]
C:/Users/chris/AppData/Local/Temp/_gbsbuild/obj/scene_26_projectiles.rel
                                          [ scene_26_projectiles ]
C:/Users/chris/AppData/Local/Temp/_gbsbuild/obj/scene_26_sprites.rel
                                          [ scene_26_sprites ]
C:/Users/chris/AppData/Local/Temp/_gbsbuild/obj/scene_26_triggers.rel
                                          [ scene_26_triggers ]
C:/Users/chris/AppData/Local/Temp/_gbsbuild/obj/scene_26.rel
                                          [ scene_26 ]
C:/Users/chris/AppData/Local/Temp/_gbsbuild/obj/scene_27_actors.rel
                                          [ scene_27_actors ]
C:/Users/chris/AppData/Local/Temp/_gbsbuild/obj/scene_27_collisions.rel
                                          [ scene_27_collisions ]
C:/Users/chris/AppData/Local/Temp/_gbsbuild/obj/scene_27_projectiles.rel
                                          [ scene_27_projectiles ]
C:/Users/chris/AppData/Local/Temp/_gbsbuild/obj/scene_27_sprites.rel
                                          [ scene_27_sprites ]
C:/Users/chris/AppData/Local/Temp/_gbsbuild/obj/scene_27_triggers.rel
                                          [ scene_27_triggers ]
C:/Users/chris/AppData/Local/Temp/_gbsbuild/obj/scene_27.rel
                                          [ scene_27 ]
C:/Users/chris/AppData/Local/Temp/_gbsbuild/obj/scene_28_actors.rel
                                          [ scene_28_actors ]
C:/Users/chris/AppData/Local/Temp/_gbsbuild/obj/scene_28_collisions.rel
                                          [ scene_28_collisions ]
C:/Users/chris/AppData/Local/Temp/_gbsbuild/obj/scene_28_projectiles.rel
                                          [ scene_28_projectiles ]
C:/Users/chris/AppData/Local/Temp/_gbsbuild/obj/scene_28_sprites.rel
                                          [ scene_28_sprites ]
C:/Users/chris/AppData/Local/Temp/_gbsbuild/obj/scene_28_triggers.rel
                                          [ scene_28_triggers ]
C:/Users/chris/AppData/Local/Temp/_gbsbuild/obj/scene_28.rel
                                          [ scene_28 ]
C:/Users/chris/AppData/Local/Temp/_gbsbuild/obj/scene_29_actors.rel
                                          [ scene_29_actors ]
C:/Users/chris/AppData/Local/Temp/_gbsbuild/obj/scene_29_collisions.rel
                                          [ scene_29_collisions ]
C:/Users/chris/AppData/Local/Temp/_gbsbuild/obj/scene_29_projectiles.rel
                                          [ scene_29_projectiles ]
C:/Users/chris/AppData/Local/Temp/_gbsbuild/obj/scene_29_sprites.rel
                                          [ scene_29_sprites ]
C:/Users/chris/AppData/Local/Temp/_gbsbuild/obj/scene_29_triggers.rel
                                          [ scene_29_triggers ]
C:/Users/chris/AppData/Local/Temp/_gbsbuild/obj/scene_29.rel
                                          [ scene_29 ]
C:/Users/chris/AppData/Local/Temp/_gbsbuild/obj/scene_3_actors.rel
                                          [ scene_3_actors ]
C:/Users/chris/AppData/Local/Temp/_gbsbuild/obj/scene_3_collisions.rel
                                          [ scene_3_collisions ]
C:/Users/chris/AppData/Local/Temp/_gbsbuild/obj/scene_3_projectiles.rel
                                          [ scene_3_projectiles ]
C:/Users/chris/AppData/Local/Temp/_gbsbuild/obj/scene_3_sprites.rel
                                          [ scene_3_sprites ]
C:/Users/chris/AppData/Local/Temp/_gbsbuild/obj/scene_3_triggers.rel
                                          [ scene_3_triggers ]
C:/Users/chris/AppData/Local/Temp/_gbsbuild/obj/scene_3.rel
                                          [ scene_3 ]
C:/Users/chris/AppData/Local/Temp/_gbsbuild/obj/scene_30_actors.rel
                                          [ scene_30_actors ]
C:/Users/chris/AppData/Local/Temp/_gbsbuild/obj/scene_30_collisions.rel
                                          [ scene_30_collisions ]
C:/Users/chris/AppData/Local/Temp/_gbsbuild/obj/scene_30_projectiles.rel
                                          [ scene_30_projectiles ]
C:/Users/chris/AppData/Local/Temp/_gbsbuild/obj/scene_30_sprites.rel
                                          [ scene_30_sprites ]
C:/Users/chris/AppData/Local/Temp/_gbsbuild/obj/scene_30_triggers.rel
                                          [ scene_30_triggers ]
C:/Users/chris/AppData/Local/Temp/_gbsbuild/obj/scene_30.rel
                                          [ scene_30 ]
C:/Users/chris/AppData/Local/Temp/_gbsbuild/obj/scene_31_actors.rel
                                          [ scene_31_actors ]
C:/Users/chris/AppData/Local/Temp/_gbsbuild/obj/scene_31_collisions.rel
                                          [ scene_31_collisions ]
C:/Users/chris/AppData/Local/Temp/_gbsbuild/obj/scene_31_projectiles.rel
                                          [ scene_31_projectiles ]
C:/Users/chris/AppData/Local/Temp/_gbsbuild/obj/scene_31_sprites.rel
                                          [ scene_31_sprites ]
C:/Users/chris/AppData/Local/Temp/_gbsbuild/obj/scene_31_triggers.rel
                                          [ scene_31_triggers ]
C:/Users/chris/AppData/Local/Temp/_gbsbuild/obj/scene_31.rel
                                          [ scene_31 ]
C:/Users/chris/AppData/Local/Temp/_gbsbuild/obj/scene_32_actors.rel
                                          [ scene_32_actors ]
C:/Users/chris/AppData/Local/Temp/_gbsbuild/obj/scene_32_collisions.rel
                                          [ scene_32_collisions ]
C:/Users/chris/AppData/Local/Temp/_gbsbuild/obj/scene_32_projectiles.rel
                                          [ scene_32_projectiles ]
C:/Users/chris/AppData/Local/Temp/_gbsbuild/obj/scene_32_sprites.rel
                                          [ scene_32_sprites ]
C:/Users/chris/AppData/Local/Temp/_gbsbuild/obj/scene_32_triggers.rel
                                          [ scene_32_triggers ]
C:/Users/chris/AppData/Local/Temp/_gbsbuild/obj/scene_32.rel
                                          [ scene_32 ]
C:/Users/chris/AppData/Local/Temp/_gbsbuild/obj/scene_4_actors.rel
                                          [ scene_4_actors ]
C:/Users/chris/AppData/Local/Temp/_gbsbuild/obj/scene_4_collisions.rel
                                          [ scene_4_collisions ]
C:/Users/chris/AppData/Local/Temp/_gbsbuild/obj/scene_4_projectiles.rel
                                          [ scene_4_projectiles ]
C:/Users/chris/AppData/Local/Temp/_gbsbuild/obj/scene_4_sprites.rel
                                          [ scene_4_sprites ]
C:/Users/chris/AppData/Local/Temp/_gbsbuild/obj/scene_4_triggers.rel
                                          [ scene_4_triggers ]
C:/Users/chris/AppData/Local/Temp/_gbsbuild/obj/scene_4.rel
                                          [ scene_4 ]
C:/Users/chris/AppData/Local/Temp/_gbsbuild/obj/scene_5_actors.rel
                                          [ scene_5_actors ]
C:/Users/chris/AppData/Local/Temp/_gbsbuild/obj/scene_5_collisions.rel
                                          [ scene_5_collisions ]
C:/Users/chris/AppData/Local/Temp/_gbsbuild/obj/scene_5_projectiles.rel
                                          [ scene_5_projectiles ]
C:/Users/chris/AppData/Local/Temp/_gbsbuild/obj/scene_5_sprites.rel
                                          [ scene_5_sprites ]
C:/Users/chris/AppData/Local/Temp/_gbsbuild/obj/scene_5_triggers.rel
                                          [ scene_5_triggers ]
C:/Users/chris/AppData/Local/Temp/_gbsbuild/obj/scene_5.rel
                                          [ scene_5 ]
C:/Users/chris/AppData/Local/Temp/_gbsbuild/obj/scene_6_actors.rel
                                          [ scene_6_actors ]
C:/Users/chris/AppData/Local/Temp/_gbsbuild/obj/scene_6_collisions.rel
                                          [ scene_6_collisions ]
C:/Users/chris/AppData/Local/Temp/_gbsbuild/obj/scene_6_projectiles.rel
                                          [ scene_6_projectiles ]
C:/Users/chris/AppData/Local/Temp/_gbsbuild/obj/scene_6_sprites.rel
                                          [ scene_6_sprites ]
C:/Users/chris/AppData/Local/Temp/_gbsbuild/obj/scene_6_triggers.rel
                                          [ scene_6_triggers ]
C:/Users/chris/AppData/Local/Temp/_gbsbuild/obj/scene_6.rel
                                          [ scene_6 ]
C:/Users/chris/AppData/Local/Temp/_gbsbuild/obj/scene_7_actors.rel
                                          [ scene_7_actors ]
C:/Users/chris/AppData/Local/Temp/_gbsbuild/obj/scene_7_collisions.rel
                                          [ scene_7_collisions ]
C:/Users/chris/AppData/Local/Temp/_gbsbuild/obj/scene_7_projectiles.rel
                                          [ scene_7_projectiles ]
C:/Users/chris/AppData/Local/Temp/_gbsbuild/obj/scene_7_sprites.rel
                                          [ scene_7_sprites ]
C:/Users/chris/AppData/Local/Temp/_gbsbuild/obj/scene_7_triggers.rel
                                          [ scene_7_triggers ]
C:/Users/chris/AppData/Local/Temp/_gbsbuild/obj/scene_7.rel
                                          [ scene_7 ]
C:/Users/chris/AppData/Local/Temp/_gbsbuild/obj/scene_8_actors.rel
                                          [ scene_8_actors ]
C:/Users/chris/AppData/Local/Temp/_gbsbuild/obj/scene_8_collisions.rel
                                          [ scene_8_collisions ]
C:/Users/chris/AppData/Local/Temp/_gbsbuild/obj/scene_8_projectiles.rel
                                          [ scene_8_projectiles ]
C:/Users/chris/AppData/Local/Temp/_gbsbuild/obj/scene_8_sprites.rel
                                          [ scene_8_sprites ]
C:/Users/chris/AppData/Local/Temp/_gbsbuild/obj/scene_8_triggers.rel
                                          [ scene_8_triggers ]
C:/Users/chris/AppData/Local/Temp/_gbsbuild/obj/scene_8.rel
                                          [ scene_8 ]
C:/Users/chris/AppData/Local/Temp/_gbsbuild/obj/scene_9_actors.rel
                                          [ scene_9_actors ]
C:/Users/chris/AppData/Local/Temp/_gbsbuild/obj/scene_9_collisions.rel
                                          [ scene_9_collisions ]
C:/Users/chris/AppData/Local/Temp/_gbsbuild/obj/scene_9_projectiles.rel
                                          [ scene_9_projectiles ]
C:/Users/chris/AppData/Local/Temp/_gbsbuild/obj/scene_9_sprites.rel
                                          [ scene_9_sprites ]
C:/Users/chris/AppData/Local/Temp/_gbsbuild/obj/scene_9.rel
                                          [ scene_9 ]
C:/Users/chris/AppData/Local/Temp/_gbsbuild/obj/script_enemy_boss_hitstun.rel
                                          [ script_enemy_boss_hitstun ]
C:/Users/chris/AppData/Local/Temp/_gbsbuild/obj/script_engine_init.rel
                                          [  ]
C:/Users/chris/AppData/Local/Temp/_gbsbuild/obj/script_event_enemy_hitstun.rel
                                          [ script_event_enemy_hitstun ]
C:/Users/chris/AppData/Local/Temp/_gbsbuild/obj/script_event_player_hitstun_0.rel
                                          [ script_event_player_hitstun_0 ]
C:/Users/chris/AppData/Local/Temp/_gbsbuild/obj/script_event_player_hitstun_knockback.rel
                                          [ script_event_player_hitstun_knoc ]
C:/Users/chris/AppData/Local/Temp/_gbsbuild/obj/script_event_player_hitstun.rel
                                          [ script_event_player_hitstun ]
C:/Users/chris/AppData/Local/Temp/_gbsbuild/obj/script_init_custominputs.rel
                                          [ script_init_custominputs ]
C:/Users/chris/AppData/Local/Temp/_gbsbuild/obj/script_init_player_jumpsfx.rel
                                          [ script_init_player_jumpsfx ]
C:/Users/chris/AppData/Local/Temp/_gbsbuild/obj/script_init_resetvariables.rel
                                          [ script_init_resetvariables ]
C:/Users/chris/AppData/Local/Temp/_gbsbuild/obj/script_input_0.rel
                                          [ script_input_0 ]
C:/Users/chris/AppData/Local/Temp/_gbsbuild/obj/script_input_1.rel
                                          [ script_input_1 ]
C:/Users/chris/AppData/Local/Temp/_gbsbuild/obj/script_input_10.rel
                                          [ script_input_10 ]
C:/Users/chris/AppData/Local/Temp/_gbsbuild/obj/script_input_11.rel
                                          [ script_input_11 ]
C:/Users/chris/AppData/Local/Temp/_gbsbuild/obj/script_input_12.rel
                                          [ script_input_12 ]
C:/Users/chris/AppData/Local/Temp/_gbsbuild/obj/script_input_13.rel
                                          [ script_input_13 ]
C:/Users/chris/AppData/Local/Temp/_gbsbuild/obj/script_input_2.rel
                                          [ script_input_2 ]
C:/Users/chris/AppData/Local/Temp/_gbsbuild/obj/script_input_3.rel
                                          [ script_input_3 ]
C:/Users/chris/AppData/Local/Temp/_gbsbuild/obj/script_input_4.rel
                                          [ script_input_4 ]
C:/Users/chris/AppData/Local/Temp/_gbsbuild/obj/script_input_5.rel
                                          [ script_input_5 ]
C:/Users/chris/AppData/Local/Temp/_gbsbuild/obj/script_input_6.rel
                                          [ script_input_6 ]
C:/Users/chris/AppData/Local/Temp/_gbsbuild/obj/script_input_7.rel
                                          [ script_input_7 ]
C:/Users/chris/AppData/Local/Temp/_gbsbuild/obj/script_input_8.rel
                                          [ script_input_8 ]
C:/Users/chris/AppData/Local/Temp/_gbsbuild/obj/script_input_9.rel
                                          [ script_input_9 ]
C:/Users/chris/AppData/Local/Temp/_gbsbuild/obj/script_s0_init.rel
                                          [ script_s0_init ]
C:/Users/chris/AppData/Local/Temp/_gbsbuild/obj/script_s0_p_hit1.rel
                                          [ script_s0_p_hit1 ]
C:/Users/chris/AppData/Local/Temp/_gbsbuild/obj/script_s0a1_interact.rel
                                          [ script_s0a1_interact ]
C:/Users/chris/AppData/Local/Temp/_gbsbuild/obj/script_s0a4_interact.rel
                                          [ script_s0a4_interact ]
C:/Users/chris/AppData/Local/Temp/_gbsbuild/obj/script_s0a4_update.rel
                                          [ script_s0a4_update ]
C:/Users/chris/AppData/Local/Temp/_gbsbuild/obj/script_s0t0_interact.rel
                                          [ script_s0t0_interact ]
C:/Users/chris/AppData/Local/Temp/_gbsbuild/obj/script_s1_init.rel
                                          [ script_s1_init ]
C:/Users/chris/AppData/Local/Temp/_gbsbuild/obj/script_s10_init.rel
                                          [ script_s10_init ]
C:/Users/chris/AppData/Local/Temp/_gbsbuild/obj/script_s10_p_hit1.rel
                                          [ script_s10_p_hit1 ]
C:/Users/chris/AppData/Local/Temp/_gbsbuild/obj/script_s10a12_interact.rel
                                          [ script_s10a12_interact ]
C:/Users/chris/AppData/Local/Temp/_gbsbuild/obj/script_s10a12_update.rel
                                          [ script_s10a12_update ]
C:/Users/chris/AppData/Local/Temp/_gbsbuild/obj/script_s10a8_interact.rel
                                          [ script_s10a8_interact ]
C:/Users/chris/AppData/Local/Temp/_gbsbuild/obj/script_s10a8_update.rel
                                          [ script_s10a8_update ]
C:/Users/chris/AppData/Local/Temp/_gbsbuild/obj/script_s10a9_interact.rel
                                          [ script_s10a9_interact ]
C:/Users/chris/AppData/Local/Temp/_gbsbuild/obj/script_s10a9_update.rel
                                          [ script_s10a9_update ]
C:/Users/chris/AppData/Local/Temp/_gbsbuild/obj/script_s10t0_interact.rel
                                          [ script_s10t0_interact ]
C:/Users/chris/AppData/Local/Temp/_gbsbuild/obj/script_s10t1_interact.rel
                                          [ script_s10t1_interact ]
C:/Users/chris/AppData/Local/Temp/_gbsbuild/obj/script_s11_init.rel
                                          [ script_s11_init ]
C:/Users/chris/AppData/Local/Temp/_gbsbuild/obj/script_s11_p_hit1.rel
                                          [ script_s11_p_hit1 ]
C:/Users/chris/AppData/Local/Temp/_gbsbuild/obj/script_s11a0_interact.rel
                                          [ script_s11a0_interact ]
C:/Users/chris/AppData/Local/Temp/_gbsbuild/obj/script_s11t0_interact.rel
                                          [ script_s11t0_interact ]
C:/Users/chris/AppData/Local/Temp/_gbsbuild/obj/script_s12_init.rel
                                          [ script_s12_init ]
C:/Users/chris/AppData/Local/Temp/_gbsbuild/obj/script_s12_p_hit1.rel
                                          [ script_s12_p_hit1 ]
C:/Users/chris/AppData/Local/Temp/_gbsbuild/obj/script_s12a6_interact.rel
                                          [ script_s12a6_interact ]
C:/Users/chris/AppData/Local/Temp/_gbsbuild/obj/script_s12a6_update.rel
                                          [ script_s12a6_update ]
C:/Users/chris/AppData/Local/Temp/_gbsbuild/obj/script_s12t0_interact.rel
                                          [ script_s12t0_interact ]
C:/Users/chris/AppData/Local/Temp/_gbsbuild/obj/script_s13_init.rel
                                          [ script_s13_init ]
C:/Users/chris/AppData/Local/Temp/_gbsbuild/obj/script_s13_p_hit1.rel
                                          [ script_s13_p_hit1 ]
C:/Users/chris/AppData/Local/Temp/_gbsbuild/obj/script_s13a0_interact.rel
                                          [ script_s13a0_interact ]
C:/Users/chris/AppData/Local/Temp/_gbsbuild/obj/script_s13a0_update.rel
                                          [ script_s13a0_update ]
C:/Users/chris/AppData/Local/Temp/_gbsbuild/obj/script_s13a1_interact.rel
                                          [ script_s13a1_interact ]
C:/Users/chris/AppData/Local/Temp/_gbsbuild/obj/script_s13a1_update.rel
                                          [ script_s13a1_update ]
C:/Users/chris/AppData/Local/Temp/_gbsbuild/obj/script_s13a2_interact.rel
                                          [ script_s13a2_interact ]
C:/Users/chris/AppData/Local/Temp/_gbsbuild/obj/script_s13a2_update.rel
                                          [ script_s13a2_update ]
C:/Users/chris/AppData/Local/Temp/_gbsbuild/obj/script_s13a3_interact.rel
                                          [ script_s13a3_interact ]
C:/Users/chris/AppData/Local/Temp/_gbsbuild/obj/script_s13a3_update.rel
                                          [ script_s13a3_update ]
C:/Users/chris/AppData/Local/Temp/_gbsbuild/obj/script_s13t0_interact.rel
                                          [ script_s13t0_interact ]
C:/Users/chris/AppData/Local/Temp/_gbsbuild/obj/script_s14_init.rel
                                          [ script_s14_init ]
C:/Users/chris/AppData/Local/Temp/_gbsbuild/obj/script_s15_init.rel
                                          [ script_s15_init ]
C:/Users/chris/AppData/Local/Temp/_gbsbuild/obj/script_s16_init.rel
                                          [ script_s16_init ]
C:/Users/chris/AppData/Local/Temp/_gbsbuild/obj/script_s16t0_interact.rel
                                          [ script_s16t0_interact ]
C:/Users/chris/AppData/Local/Temp/_gbsbuild/obj/script_s17_init.rel
                                          [ script_s17_init ]
C:/Users/chris/AppData/Local/Temp/_gbsbuild/obj/script_s17_p_hit1.rel
                                          [ script_s17_p_hit1 ]
C:/Users/chris/AppData/Local/Temp/_gbsbuild/obj/script_s17a4_interact.rel
                                          [ script_s17a4_interact ]
C:/Users/chris/AppData/Local/Temp/_gbsbuild/obj/script_s17a5_interact.rel
                                          [ script_s17a5_interact ]
C:/Users/chris/AppData/Local/Temp/_gbsbuild/obj/script_s17a5_update.rel
                                          [ script_s17a5_update ]
C:/Users/chris/AppData/Local/Temp/_gbsbuild/obj/script_s17t0_interact.rel
                                          [ script_s17t0_interact ]
C:/Users/chris/AppData/Local/Temp/_gbsbuild/obj/script_s18_init.rel
                                          [ script_s18_init ]
C:/Users/chris/AppData/Local/Temp/_gbsbuild/obj/script_s18_p_hit1.rel
                                          [ script_s18_p_hit1 ]
C:/Users/chris/AppData/Local/Temp/_gbsbuild/obj/script_s18a7_interact.rel
                                          [ script_s18a7_interact ]
C:/Users/chris/AppData/Local/Temp/_gbsbuild/obj/script_s18a7_update.rel
                                          [ script_s18a7_update ]
C:/Users/chris/AppData/Local/Temp/_gbsbuild/obj/script_s18a8_interact.rel
                                          [ script_s18a8_interact ]
C:/Users/chris/AppData/Local/Temp/_gbsbuild/obj/script_s18a8_update.rel
                                          [ script_s18a8_update ]
C:/Users/chris/AppData/Local/Temp/_gbsbuild/obj/script_s18a9_interact.rel
                                          [ script_s18a9_interact ]
C:/Users/chris/AppData/Local/Temp/_gbsbuild/obj/script_s18a9_update.rel
                                          [ script_s18a9_update ]
C:/Users/chris/AppData/Local/Temp/_gbsbuild/obj/script_s18t0_interact.rel
                                          [ script_s18t0_interact ]
C:/Users/chris/AppData/Local/Temp/_gbsbuild/obj/script_s19_init.rel
                                          [ script_s19_init ]
C:/Users/chris/AppData/Local/Temp/_gbsbuild/obj/script_s19_p_hit1.rel
                                          [ script_s19_p_hit1 ]
C:/Users/chris/AppData/Local/Temp/_gbsbuild/obj/script_s19a4_interact.rel
                                          [ script_s19a4_interact ]
C:/Users/chris/AppData/Local/Temp/_gbsbuild/obj/script_s19a5_interact.rel
                                          [ script_s19a5_interact ]
C:/Users/chris/AppData/Local/Temp/_gbsbuild/obj/script_s19a5_update.rel
                                          [ script_s19a5_update ]
C:/Users/chris/AppData/Local/Temp/_gbsbuild/obj/script_s19t0_interact.rel
                                          [ script_s19t0_interact ]
C:/Users/chris/AppData/Local/Temp/_gbsbuild/obj/script_s2_init.rel
                                          [ script_s2_init ]
C:/Users/chris/AppData/Local/Temp/_gbsbuild/obj/script_s20_init.rel
                                          [ script_s20_init ]
C:/Users/chris/AppData/Local/Temp/_gbsbuild/obj/script_s20_p_hit1.rel
                                          [ script_s20_p_hit1 ]
C:/Users/chris/AppData/Local/Temp/_gbsbuild/obj/script_s20a12_interact.rel
                                          [ script_s20a12_interact ]
C:/Users/chris/AppData/Local/Temp/_gbsbuild/obj/script_s20a12_update.rel
                                          [ script_s20a12_update ]
C:/Users/chris/AppData/Local/Temp/_gbsbuild/obj/script_s20a13_interact.rel
                                          [ script_s20a13_interact ]
C:/Users/chris/AppData/Local/Temp/_gbsbuild/obj/script_s20a13_update.rel
                                          [ script_s20a13_update ]
C:/Users/chris/AppData/Local/Temp/_gbsbuild/obj/script_s20a14_interact.rel
                                          [ script_s20a14_interact ]
C:/Users/chris/AppData/Local/Temp/_gbsbuild/obj/script_s20a14_update.rel
                                          [ script_s20a14_update ]
C:/Users/chris/AppData/Local/Temp/_gbsbuild/obj/script_s20a15_interact.rel
                                          [ script_s20a15_interact ]
C:/Users/chris/AppData/Local/Temp/_gbsbuild/obj/script_s20a15_update.rel
                                          [ script_s20a15_update ]
C:/Users/chris/AppData/Local/Temp/_gbsbuild/obj/script_s20t0_interact.rel
                                          [ script_s20t0_interact ]
C:/Users/chris/AppData/Local/Temp/_gbsbuild/obj/script_s21_init.rel
                                          [ script_s21_init ]
C:/Users/chris/AppData/Local/Temp/_gbsbuild/obj/script_s21_p_hit1.rel
                                          [ script_s21_p_hit1 ]
C:/Users/chris/AppData/Local/Temp/_gbsbuild/obj/script_s21a6_interact.rel
                                          [ script_s21a6_interact ]
C:/Users/chris/AppData/Local/Temp/_gbsbuild/obj/script_s21a6_update.rel
                                          [ script_s21a6_update ]
C:/Users/chris/AppData/Local/Temp/_gbsbuild/obj/script_s21a7_interact.rel
                                          [ script_s21a7_interact ]
C:/Users/chris/AppData/Local/Temp/_gbsbuild/obj/script_s21a7_update.rel
                                          [ script_s21a7_update ]
C:/Users/chris/AppData/Local/Temp/_gbsbuild/obj/script_s21a8_interact.rel
                                          [ script_s21a8_interact ]
C:/Users/chris/AppData/Local/Temp/_gbsbuild/obj/script_s21a8_update.rel
                                          [ script_s21a8_update ]
C:/Users/chris/AppData/Local/Temp/_gbsbuild/obj/script_s21t0_interact.rel
                                          [ script_s21t0_interact ]
C:/Users/chris/AppData/Local/Temp/_gbsbuild/obj/script_s22_init.rel
                                          [ script_s22_init ]
C:/Users/chris/AppData/Local/Temp/_gbsbuild/obj/script_s22_p_hit1.rel
                                          [ script_s22_p_hit1 ]
C:/Users/chris/AppData/Local/Temp/_gbsbuild/obj/script_s22a4_interact.rel
                                          [ script_s22a4_interact ]
C:/Users/chris/AppData/Local/Temp/_gbsbuild/obj/script_s22a5_interact.rel
                                          [ script_s22a5_interact ]
C:/Users/chris/AppData/Local/Temp/_gbsbuild/obj/script_s22a5_update.rel
                                          [ script_s22a5_update ]
C:/Users/chris/AppData/Local/Temp/_gbsbuild/obj/script_s22t0_interact.rel
                                          [ script_s22t0_interact ]
C:/Users/chris/AppData/Local/Temp/_gbsbuild/obj/script_s23_init.rel
                                          [ script_s23_init ]
C:/Users/chris/AppData/Local/Temp/_gbsbuild/obj/script_s23_p_hit1.rel
                                          [ script_s23_p_hit1 ]
C:/Users/chris/AppData/Local/Temp/_gbsbuild/obj/script_s23a4_interact.rel
                                          [ script_s23a4_interact ]
C:/Users/chris/AppData/Local/Temp/_gbsbuild/obj/script_s23a4_update.rel
                                          [ script_s23a4_update ]
C:/Users/chris/AppData/Local/Temp/_gbsbuild/obj/script_s23a5_interact.rel
                                          [ script_s23a5_interact ]
C:/Users/chris/AppData/Local/Temp/_gbsbuild/obj/script_s23a5_update.rel
                                          [ script_s23a5_update ]
C:/Users/chris/AppData/Local/Temp/_gbsbuild/obj/script_s23a6_interact.rel
                                          [ script_s23a6_interact ]
C:/Users/chris/AppData/Local/Temp/_gbsbuild/obj/script_s23a6_update.rel
                                          [ script_s23a6_update ]
C:/Users/chris/AppData/Local/Temp/_gbsbuild/obj/script_s23a7_interact.rel
                                          [ script_s23a7_interact ]
C:/Users/chris/AppData/Local/Temp/_gbsbuild/obj/script_s23a7_update.rel
                                          [ script_s23a7_update ]
C:/Users/chris/AppData/Local/Temp/_gbsbuild/obj/script_s23a8_interact.rel
                                          [ script_s23a8_interact ]
C:/Users/chris/AppData/Local/Temp/_gbsbuild/obj/script_s23t0_interact.rel
                                          [ script_s23t0_interact ]
C:/Users/chris/AppData/Local/Temp/_gbsbuild/obj/script_s24_init.rel
                                          [ script_s24_init ]
C:/Users/chris/AppData/Local/Temp/_gbsbuild/obj/script_s24_p_hit1.rel
                                          [ script_s24_p_hit1 ]
C:/Users/chris/AppData/Local/Temp/_gbsbuild/obj/script_s24a6_interact.rel
                                          [ script_s24a6_interact ]
C:/Users/chris/AppData/Local/Temp/_gbsbuild/obj/script_s24a6_update.rel
                                          [ script_s24a6_update ]
C:/Users/chris/AppData/Local/Temp/_gbsbuild/obj/script_s24a7_interact.rel
                                          [ script_s24a7_interact ]
C:/Users/chris/AppData/Local/Temp/_gbsbuild/obj/script_s24a7_update.rel
                                          [ script_s24a7_update ]
C:/Users/chris/AppData/Local/Temp/_gbsbuild/obj/script_s24a8_interact.rel
                                          [ script_s24a8_interact ]
C:/Users/chris/AppData/Local/Temp/_gbsbuild/obj/script_s24a8_update.rel
                                          [ script_s24a8_update ]
C:/Users/chris/AppData/Local/Temp/_gbsbuild/obj/script_s24a9_interact.rel
                                          [ script_s24a9_interact ]
C:/Users/chris/AppData/Local/Temp/_gbsbuild/obj/script_s24a9_update.rel
                                          [ script_s24a9_update ]
C:/Users/chris/AppData/Local/Temp/_gbsbuild/obj/script_s24t0_interact.rel
                                          [ script_s24t0_interact ]
C:/Users/chris/AppData/Local/Temp/_gbsbuild/obj/script_s25_init.rel
                                          [ script_s25_init ]
C:/Users/chris/AppData/Local/Temp/_gbsbuild/obj/script_s25_p_hit1.rel
                                          [ script_s25_p_hit1 ]
C:/Users/chris/AppData/Local/Temp/_gbsbuild/obj/script_s25a7_interact.rel
                                          [ script_s25a7_interact ]
C:/Users/chris/AppData/Local/Temp/_gbsbuild/obj/script_s25a7_update.rel
                                          [ script_s25a7_update ]
C:/Users/chris/AppData/Local/Temp/_gbsbuild/obj/script_s25a8_interact.rel
                                          [ script_s25a8_interact ]
C:/Users/chris/AppData/Local/Temp/_gbsbuild/obj/script_s25a8_update.rel
                                          [ script_s25a8_update ]
C:/Users/chris/AppData/Local/Temp/_gbsbuild/obj/script_s25a9_interact.rel
                                          [ script_s25a9_interact ]
C:/Users/chris/AppData/Local/Temp/_gbsbuild/obj/script_s25a9_update.rel
                                          [ script_s25a9_update ]
C:/Users/chris/AppData/Local/Temp/_gbsbuild/obj/script_s25t0_interact.rel
                                          [ script_s25t0_interact ]
C:/Users/chris/AppData/Local/Temp/_gbsbuild/obj/script_s25t1_interact.rel
                                          [ script_s25t1_interact ]
C:/Users/chris/AppData/Local/Temp/_gbsbuild/obj/script_s26_init.rel
                                          [ script_s26_init ]
C:/Users/chris/AppData/Local/Temp/_gbsbuild/obj/script_s26_p_hit1.rel
                                          [ script_s26_p_hit1 ]
C:/Users/chris/AppData/Local/Temp/_gbsbuild/obj/script_s26a10_interact.rel
                                          [ script_s26a10_interact ]
C:/Users/chris/AppData/Local/Temp/_gbsbuild/obj/script_s26a10_update.rel
                                          [ script_s26a10_update ]
C:/Users/chris/AppData/Local/Temp/_gbsbuild/obj/script_s26a11_interact.rel
                                          [ script_s26a11_interact ]
C:/Users/chris/AppData/Local/Temp/_gbsbuild/obj/script_s26a11_update.rel
                                          [ script_s26a11_update ]
C:/Users/chris/AppData/Local/Temp/_gbsbuild/obj/script_s26a8_interact.rel
                                          [ script_s26a8_interact ]
C:/Users/chris/AppData/Local/Temp/_gbsbuild/obj/script_s26a8_update.rel
                                          [ script_s26a8_update ]
C:/Users/chris/AppData/Local/Temp/_gbsbuild/obj/script_s26a9_interact.rel
                                          [ script_s26a9_interact ]
C:/Users/chris/AppData/Local/Temp/_gbsbuild/obj/script_s26a9_update.rel
                                          [ script_s26a9_update ]
C:/Users/chris/AppData/Local/Temp/_gbsbuild/obj/script_s26t0_interact.rel
                                          [ script_s26t0_interact ]
C:/Users/chris/AppData/Local/Temp/_gbsbuild/obj/script_s27_init.rel
                                          [ script_s27_init ]
C:/Users/chris/AppData/Local/Temp/_gbsbuild/obj/script_s27_p_hit1.rel
                                          [ script_s27_p_hit1 ]
C:/Users/chris/AppData/Local/Temp/_gbsbuild/obj/script_s27a6_interact.rel
                                          [ script_s27a6_interact ]
C:/Users/chris/AppData/Local/Temp/_gbsbuild/obj/script_s27a7_interact.rel
                                          [ script_s27a7_interact ]
C:/Users/chris/AppData/Local/Temp/_gbsbuild/obj/script_s27a7_update.rel
                                          [ script_s27a7_update ]
C:/Users/chris/AppData/Local/Temp/_gbsbuild/obj/script_s27a8_interact.rel
                                          [ script_s27a8_interact ]
C:/Users/chris/AppData/Local/Temp/_gbsbuild/obj/script_s27a8_update.rel
                                          [ script_s27a8_update ]
C:/Users/chris/AppData/Local/Temp/_gbsbuild/obj/script_s27t0_interact.rel
                                          [ script_s27t0_interact ]
C:/Users/chris/AppData/Local/Temp/_gbsbuild/obj/script_s28_init.rel
                                          [ script_s28_init ]
C:/Users/chris/AppData/Local/Temp/_gbsbuild/obj/script_s28_p_hit1.rel
                                          [ script_s28_p_hit1 ]
C:/Users/chris/AppData/Local/Temp/_gbsbuild/obj/script_s28a10_interact.rel
                                          [ script_s28a10_interact ]
C:/Users/chris/AppData/Local/Temp/_gbsbuild/obj/script_s28a10_update.rel
                                          [ script_s28a10_update ]
C:/Users/chris/AppData/Local/Temp/_gbsbuild/obj/script_s28a7_interact.rel
                                          [ script_s28a7_interact ]
C:/Users/chris/AppData/Local/Temp/_gbsbuild/obj/script_s28a7_update.rel
                                          [ script_s28a7_update ]
C:/Users/chris/AppData/Local/Temp/_gbsbuild/obj/script_s28a8_interact.rel
                                          [ script_s28a8_interact ]
C:/Users/chris/AppData/Local/Temp/_gbsbuild/obj/script_s28a8_update.rel
                                          [ script_s28a8_update ]
C:/Users/chris/AppData/Local/Temp/_gbsbuild/obj/script_s28a9_interact.rel
                                          [ script_s28a9_interact ]
C:/Users/chris/AppData/Local/Temp/_gbsbuild/obj/script_s28a9_update.rel
                                          [ script_s28a9_update ]
C:/Users/chris/AppData/Local/Temp/_gbsbuild/obj/script_s28t0_interact.rel
                                          [ script_s28t0_interact ]
C:/Users/chris/AppData/Local/Temp/_gbsbuild/obj/script_s29_init.rel
                                          [ script_s29_init ]
C:/Users/chris/AppData/Local/Temp/_gbsbuild/obj/script_s29_p_hit1.rel
                                          [ script_s29_p_hit1 ]
C:/Users/chris/AppData/Local/Temp/_gbsbuild/obj/script_s29a10_interact.rel
                                          [ script_s29a10_interact ]
C:/Users/chris/AppData/Local/Temp/_gbsbuild/obj/script_s29a10_update.rel
                                          [ script_s29a10_update ]
C:/Users/chris/AppData/Local/Temp/_gbsbuild/obj/script_s29a11_interact.rel
                                          [ script_s29a11_interact ]
C:/Users/chris/AppData/Local/Temp/_gbsbuild/obj/script_s29a11_update.rel
                                          [ script_s29a11_update ]
C:/Users/chris/AppData/Local/Temp/_gbsbuild/obj/script_s29a12_interact.rel
                                          [ script_s29a12_interact ]
C:/Users/chris/AppData/Local/Temp/_gbsbuild/obj/script_s29a12_update.rel
                                          [ script_s29a12_update ]
C:/Users/chris/AppData/Local/Temp/_gbsbuild/obj/script_s29a13_interact.rel
                                          [ script_s29a13_interact ]
C:/Users/chris/AppData/Local/Temp/_gbsbuild/obj/script_s29a13_update.rel
                                          [ script_s29a13_update ]
C:/Users/chris/AppData/Local/Temp/_gbsbuild/obj/script_s29a9_interact.rel
                                          [ script_s29a9_interact ]
C:/Users/chris/AppData/Local/Temp/_gbsbuild/obj/script_s29a9_update.rel
                                          [ script_s29a9_update ]
C:/Users/chris/AppData/Local/Temp/_gbsbuild/obj/script_s29t0_interact.rel
                                          [ script_s29t0_interact ]
C:/Users/chris/AppData/Local/Temp/_gbsbuild/obj/script_s3_init.rel
                                          [ script_s3_init ]
C:/Users/chris/AppData/Local/Temp/_gbsbuild/obj/script_s3_p_hit1.rel
                                          [ script_s3_p_hit1 ]
C:/Users/chris/AppData/Local/Temp/_gbsbuild/obj/script_s30_init.rel
                                          [ script_s30_init ]
C:/Users/chris/AppData/Local/Temp/_gbsbuild/obj/script_s30_p_hit1.rel
                                          [ script_s30_p_hit1 ]
C:/Users/chris/AppData/Local/Temp/_gbsbuild/obj/script_s30a11_interact.rel
                                          [ script_s30a11_interact ]
C:/Users/chris/AppData/Local/Temp/_gbsbuild/obj/script_s30a11_update.rel
                                          [ script_s30a11_update ]
C:/Users/chris/AppData/Local/Temp/_gbsbuild/obj/script_s30a12_interact.rel
                                          [ script_s30a12_interact ]
C:/Users/chris/AppData/Local/Temp/_gbsbuild/obj/script_s30a12_update.rel
                                          [ script_s30a12_update ]
C:/Users/chris/AppData/Local/Temp/_gbsbuild/obj/script_s30a13_interact.rel
                                          [ script_s30a13_interact ]
C:/Users/chris/AppData/Local/Temp/_gbsbuild/obj/script_s30a13_update.rel
                                          [ script_s30a13_update ]
C:/Users/chris/AppData/Local/Temp/_gbsbuild/obj/script_s30a14_interact.rel
                                          [ script_s30a14_interact ]
C:/Users/chris/AppData/Local/Temp/_gbsbuild/obj/script_s30a14_update.rel
                                          [ script_s30a14_update ]
C:/Users/chris/AppData/Local/Temp/_gbsbuild/obj/script_s30t0_interact.rel
                                          [ script_s30t0_interact ]
C:/Users/chris/AppData/Local/Temp/_gbsbuild/obj/script_s30t1_interact.rel
                                          [ script_s30t1_interact ]
C:/Users/chris/AppData/Local/Temp/_gbsbuild/obj/script_s31_init.rel
                                          [ script_s31_init ]
C:/Users/chris/AppData/Local/Temp/_gbsbuild/obj/script_s31_p_hit1.rel
                                          [ script_s31_p_hit1 ]
C:/Users/chris/AppData/Local/Temp/_gbsbuild/obj/script_s31a2_interact.rel
                                          [ script_s31a2_interact ]
C:/Users/chris/AppData/Local/Temp/_gbsbuild/obj/script_s31a2_update.rel
                                          [ script_s31a2_update ]
C:/Users/chris/AppData/Local/Temp/_gbsbuild/obj/script_s31a3_interact.rel
                                          [ script_s31a3_interact ]
C:/Users/chris/AppData/Local/Temp/_gbsbuild/obj/script_s31t0_interact.rel
                                          [ script_s31t0_interact ]
C:/Users/chris/AppData/Local/Temp/_gbsbuild/obj/script_s32_init.rel
                                          [ script_s32_init ]
C:/Users/chris/AppData/Local/Temp/_gbsbuild/obj/script_s32_p_hit1.rel
                                          [ script_s32_p_hit1 ]
C:/Users/chris/AppData/Local/Temp/_gbsbuild/obj/script_s32t0_interact.rel
                                          [ script_s32t0_interact ]
C:/Users/chris/AppData/Local/Temp/_gbsbuild/obj/script_s3a0_interact.rel
                                          [ script_s3a0_interact ]
C:/Users/chris/AppData/Local/Temp/_gbsbuild/obj/script_s3a0_update.rel
                                          [ script_s3a0_update ]
C:/Users/chris/AppData/Local/Temp/_gbsbuild/obj/script_s3a2_interact.rel
                                          [ script_s3a2_interact ]
C:/Users/chris/AppData/Local/Temp/_gbsbuild/obj/script_s3a2_update.rel
                                          [ script_s3a2_update ]
C:/Users/chris/AppData/Local/Temp/_gbsbuild/obj/script_s3a3_interact.rel
                                          [ script_s3a3_interact ]
C:/Users/chris/AppData/Local/Temp/_gbsbuild/obj/script_s3a3_update.rel
                                          [ script_s3a3_update ]
C:/Users/chris/AppData/Local/Temp/_gbsbuild/obj/script_s3t0_interact.rel
                                          [ script_s3t0_interact ]
C:/Users/chris/AppData/Local/Temp/_gbsbuild/obj/script_s4_init.rel
                                          [ script_s4_init ]
C:/Users/chris/AppData/Local/Temp/_gbsbuild/obj/script_s4a2_interact.rel
                                          [ script_s4a2_interact ]
C:/Users/chris/AppData/Local/Temp/_gbsbuild/obj/script_s4a2_update.rel
                                          [ script_s4a2_update ]
C:/Users/chris/AppData/Local/Temp/_gbsbuild/obj/script_s4a3_interact.rel
                                          [ script_s4a3_interact ]
C:/Users/chris/AppData/Local/Temp/_gbsbuild/obj/script_s4a3_update.rel
                                          [ script_s4a3_update ]
C:/Users/chris/AppData/Local/Temp/_gbsbuild/obj/script_s4t0_interact.rel
                                          [ script_s4t0_interact ]
C:/Users/chris/AppData/Local/Temp/_gbsbuild/obj/script_s4t1_interact.rel
                                          [ script_s4t1_interact ]
C:/Users/chris/AppData/Local/Temp/_gbsbuild/obj/script_s5_init.rel
                                          [ script_s5_init ]
C:/Users/chris/AppData/Local/Temp/_gbsbuild/obj/script_s5_p_hit1.rel
                                          [ script_s5_p_hit1 ]
C:/Users/chris/AppData/Local/Temp/_gbsbuild/obj/script_s5a0_interact.rel
                                          [ script_s5a0_interact ]
C:/Users/chris/AppData/Local/Temp/_gbsbuild/obj/script_s5a0_update.rel
                                          [ script_s5a0_update ]
C:/Users/chris/AppData/Local/Temp/_gbsbuild/obj/script_s5t0_interact.rel
                                          [ script_s5t0_interact ]
C:/Users/chris/AppData/Local/Temp/_gbsbuild/obj/script_s6_init.rel
                                          [ script_s6_init ]
C:/Users/chris/AppData/Local/Temp/_gbsbuild/obj/script_s6_p_hit1.rel
                                          [ script_s6_p_hit1 ]
C:/Users/chris/AppData/Local/Temp/_gbsbuild/obj/script_s6a2_interact.rel
                                          [ script_s6a2_interact ]
C:/Users/chris/AppData/Local/Temp/_gbsbuild/obj/script_s6a2_update.rel
                                          [ script_s6a2_update ]
C:/Users/chris/AppData/Local/Temp/_gbsbuild/obj/script_s6a3_interact.rel
                                          [ script_s6a3_interact ]
C:/Users/chris/AppData/Local/Temp/_gbsbuild/obj/script_s6a3_update.rel
                                          [ script_s6a3_update ]
C:/Users/chris/AppData/Local/Temp/_gbsbuild/obj/script_s6a4_interact.rel
                                          [ script_s6a4_interact ]
C:/Users/chris/AppData/Local/Temp/_gbsbuild/obj/script_s6a4_update.rel
                                          [ script_s6a4_update ]
C:/Users/chris/AppData/Local/Temp/_gbsbuild/obj/script_s6t0_interact.rel
                                          [ script_s6t0_interact ]
C:/Users/chris/AppData/Local/Temp/_gbsbuild/obj/script_s7_init.rel
                                          [ script_s7_init ]
C:/Users/chris/AppData/Local/Temp/_gbsbuild/obj/script_s7_p_hit1.rel
                                          [ script_s7_p_hit1 ]
C:/Users/chris/AppData/Local/Temp/_gbsbuild/obj/script_s7a2_interact.rel
                                          [ script_s7a2_interact ]
C:/Users/chris/AppData/Local/Temp/_gbsbuild/obj/script_s7a2_update.rel
                                          [ script_s7a2_update ]
C:/Users/chris/AppData/Local/Temp/_gbsbuild/obj/script_s7a3_interact.rel
                                          [ script_s7a3_interact ]
C:/Users/chris/AppData/Local/Temp/_gbsbuild/obj/script_s7a3_update.rel
                                          [ script_s7a3_update ]
C:/Users/chris/AppData/Local/Temp/_gbsbuild/obj/script_s7t0_interact.rel
                                          [ script_s7t0_interact ]
C:/Users/chris/AppData/Local/Temp/_gbsbuild/obj/script_s8_init.rel
                                          [ script_s8_init ]
C:/Users/chris/AppData/Local/Temp/_gbsbuild/obj/script_s8_p_hit1.rel
                                          [ script_s8_p_hit1 ]
C:/Users/chris/AppData/Local/Temp/_gbsbuild/obj/script_s8a2_interact.rel
                                          [ script_s8a2_interact ]
C:/Users/chris/AppData/Local/Temp/_gbsbuild/obj/script_s8a2_update.rel
                                          [ script_s8a2_update ]
C:/Users/chris/AppData/Local/Temp/_gbsbuild/obj/script_s8t0_interact.rel
                                          [ script_s8t0_interact ]
C:/Users/chris/AppData/Local/Temp/_gbsbuild/obj/script_s9_init.rel
                                          [ script_s9_init ]
C:/Users/chris/AppData/Local/Temp/_gbsbuild/obj/script_s9_p_hit1.rel
                                          [ script_s9_p_hit1 ]
C:/Users/chris/AppData/Local/Temp/_gbsbuild/obj/script_s9a0_interact.rel
                                          [ script_s9a0_interact ]
C:/Users/chris/AppData/Local/Temp/_gbsbuild/obj/script_s9a0_update.rel
                                          [ script_s9a0_update ]
C:/Users/chris/AppData/Local/Temp/_gbsbuild/obj/script_sfx_fireball_attack.rel
                                          [ script_sfx_fireball_attack ]
C:/Users/chris/AppData/Local/Temp/_gbsbuild/obj/script_sfx_jump.rel
                                          [ script_sfx_jump ]
C:/Users/chris/AppData/Local/Temp/_gbsbuild/obj/script_sfx_melee_attack.rel
                                          [ script_sfx_melee_attack ]
C:/Users/chris/AppData/Local/Temp/_gbsbuild/obj/spritesheet_0.rel
                                          [ spritesheet_0 ]
C:/Users/chris/AppData/Local/Temp/_gbsbuild/obj/spritesheet_1.rel
                                          [ spritesheet_1 ]
C:/Users/chris/AppData/Local/Temp/_gbsbuild/obj/spritesheet_10.rel
                                          [ spritesheet_10 ]
C:/Users/chris/AppData/Local/Temp/_gbsbuild/obj/spritesheet_11.rel
                                          [ spritesheet_11 ]
C:/Users/chris/AppData/Local/Temp/_gbsbuild/obj/spritesheet_12.rel
                                          [ spritesheet_12 ]
C:/Users/chris/AppData/Local/Temp/_gbsbuild/obj/spritesheet_13.rel
                                          [ spritesheet_13 ]
C:/Users/chris/AppData/Local/Temp/_gbsbuild/obj/spritesheet_14.rel
                                          [ spritesheet_14 ]
C:/Users/chris/AppData/Local/Temp/_gbsbuild/obj/spritesheet_15.rel
                                          [ spritesheet_15 ]
C:/Users/chris/AppData/Local/Temp/_gbsbuild/obj/spritesheet_16.rel
                                          [ spritesheet_16 ]
C:/Users/chris/AppData/Local/Temp/_gbsbuild/obj/spritesheet_17.rel
                                          [ spritesheet_17 ]
C:/Users/chris/AppData/Local/Temp/_gbsbuild/obj/spritesheet_18.rel
                                          [ spritesheet_18 ]
C:/Users/chris/AppData/Local/Temp/_gbsbuild/obj/spritesheet_19.rel
                                          [ spritesheet_19 ]
C:/Users/chris/AppData/Local/Temp/_gbsbuild/obj/spritesheet_2.rel
                                          [ spritesheet_2 ]
C:/Users/chris/AppData/Local/Temp/_gbsbuild/obj/spritesheet_20.rel
                                          [ spritesheet_20 ]
C:/Users/chris/AppData/Local/Temp/_gbsbuild/obj/spritesheet_21.rel
                                          [ spritesheet_21 ]
C:/Users/chris/AppData/Local/Temp/_gbsbuild/obj/spritesheet_22.rel
                                          [ spritesheet_22 ]
C:/Users/chris/AppData/Local/Temp/_gbsbuild/obj/spritesheet_3.rel
                                          [ spritesheet_3 ]
C:/Users/chris/AppData/Local/Temp/_gbsbuild/obj/spritesheet_4.rel
                                          [ spritesheet_4 ]
C:/Users/chris/AppData/Local/Temp/_gbsbuild/obj/spritesheet_5.rel
                                          [ spritesheet_5 ]
C:/Users/chris/AppData/Local/Temp/_gbsbuild/obj/spritesheet_6.rel
                                          [ spritesheet_6 ]
C:/Users/chris/AppData/Local/Temp/_gbsbuild/obj/spritesheet_7.rel
                                          [ spritesheet_7 ]
C:/Users/chris/AppData/Local/Temp/_gbsbuild/obj/spritesheet_8.rel
                                          [ spritesheet_8 ]
C:/Users/chris/AppData/Local/Temp/_gbsbuild/obj/spritesheet_9.rel
                                          [ spritesheet_9 ]
C:/Users/chris/AppData/Local/Temp/_gbsbuild/obj/spritesheet_none.rel
                                          [ spritesheet_none ]
C:/Users/chris/AppData/Local/Temp/_gbsbuild/obj/tilemap_0.rel
                                          [ tilemap_0 ]
C:/Users/chris/AppData/Local/Temp/_gbsbuild/obj/tilemap_1.rel
                                          [ tilemap_1 ]
C:/Users/chris/AppData/Local/Temp/_gbsbuild/obj/tilemap_10.rel
                                          [ tilemap_10 ]
C:/Users/chris/AppData/Local/Temp/_gbsbuild/obj/tilemap_11.rel
                                          [ tilemap_11 ]
C:/Users/chris/AppData/Local/Temp/_gbsbuild/obj/tilemap_12.rel
                                          [ tilemap_12 ]
C:/Users/chris/AppData/Local/Temp/_gbsbuild/obj/tilemap_13.rel
                                          [ tilemap_13 ]
C:/Users/chris/AppData/Local/Temp/_gbsbuild/obj/tilemap_14.rel
                                          [ tilemap_14 ]
C:/Users/chris/AppData/Local/Temp/_gbsbuild/obj/tilemap_15.rel
                                          [ tilemap_15 ]
C:/Users/chris/AppData/Local/Temp/_gbsbuild/obj/tilemap_16.rel
                                          [ tilemap_16 ]
C:/Users/chris/AppData/Local/Temp/_gbsbuild/obj/tilemap_17.rel
                                          [ tilemap_17 ]
C:/Users/chris/AppData/Local/Temp/_gbsbuild/obj/tilemap_18.rel
                                          [ tilemap_18 ]
C:/Users/chris/AppData/Local/Temp/_gbsbuild/obj/tilemap_19.rel
                                          [ tilemap_19 ]
C:/Users/chris/AppData/Local/Temp/_gbsbuild/obj/tilemap_2.rel
                                          [ tilemap_2 ]
C:/Users/chris/AppData/Local/Temp/_gbsbuild/obj/tilemap_20.rel
                                          [ tilemap_20 ]
C:/Users/chris/AppData/Local/Temp/_gbsbuild/obj/tilemap_21.rel
                                          [ tilemap_21 ]
C:/Users/chris/AppData/Local/Temp/_gbsbuild/obj/tilemap_22.rel
                                          [ tilemap_22 ]
C:/Users/chris/AppData/Local/Temp/_gbsbuild/obj/tilemap_23.rel
                                          [ tilemap_23 ]
C:/Users/chris/AppData/Local/Temp/_gbsbuild/obj/tilemap_24.rel
                                          [ tilemap_24 ]
C:/Users/chris/AppData/Local/Temp/_gbsbuild/obj/tilemap_25.rel
                                          [ tilemap_25 ]
C:/Users/chris/AppData/Local/Temp/_gbsbuild/obj/tilemap_26.rel
                                          [ tilemap_26 ]
C:/Users/chris/AppData/Local/Temp/_gbsbuild/obj/tilemap_27.rel
                                          [ tilemap_27 ]
C:/Users/chris/AppData/Local/Temp/_gbsbuild/obj/tilemap_28.rel
                                          [ tilemap_28 ]
C:/Users/chris/AppData/Local/Temp/_gbsbuild/obj/tilemap_29.rel
                                          [ tilemap_29 ]
C:/Users/chris/AppData/Local/Temp/_gbsbuild/obj/tilemap_3.rel
                                          [ tilemap_3 ]
C:/Users/chris/AppData/Local/Temp/_gbsbuild/obj/tilemap_30.rel
                                          [ tilemap_30 ]
C:/Users/chris/AppData/Local/Temp/_gbsbuild/obj/tilemap_4.rel
                                          [ tilemap_4 ]
C:/Users/chris/AppData/Local/Temp/_gbsbuild/obj/tilemap_5.rel
                                          [ tilemap_5 ]
C:/Users/chris/AppData/Local/Temp/_gbsbuild/obj/tilemap_6.rel
                                          [ tilemap_6 ]
C:/Users/chris/AppData/Local/Temp/_gbsbuild/obj/tilemap_7.rel
                                          [ tilemap_7 ]
C:/Users/chris/AppData/Local/Temp/_gbsbuild/obj/tilemap_8.rel
                                          [ tilemap_8 ]
C:/Users/chris/AppData/Local/Temp/_gbsbuild/obj/tilemap_9.rel
                                          [ tilemap_9 ]
C:/Users/chris/AppData/Local/Temp/_gbsbuild/obj/tilemap_attr_0.rel
                                          [ tilemap_attr_0 ]
C:/Users/chris/AppData/Local/Temp/_gbsbuild/obj/tilemap_attr_1.rel
                                          [ tilemap_attr_1 ]
C:/Users/chris/AppData/Local/Temp/_gbsbuild/obj/tilemap_attr_10.rel
                                          [ tilemap_attr_10 ]
C:/Users/chris/AppData/Local/Temp/_gbsbuild/obj/tilemap_attr_11.rel
                                          [ tilemap_attr_11 ]
C:/Users/chris/AppData/Local/Temp/_gbsbuild/obj/tilemap_attr_12.rel
                                          [ tilemap_attr_12 ]
C:/Users/chris/AppData/Local/Temp/_gbsbuild/obj/tilemap_attr_13.rel
                                          [ tilemap_attr_13 ]
C:/Users/chris/AppData/Local/Temp/_gbsbuild/obj/tilemap_attr_14.rel
                                          [ tilemap_attr_14 ]
C:/Users/chris/AppData/Local/Temp/_gbsbuild/obj/tilemap_attr_15.rel
                                          [ tilemap_attr_15 ]
C:/Users/chris/AppData/Local/Temp/_gbsbuild/obj/tilemap_attr_16.rel
                                          [ tilemap_attr_16 ]
C:/Users/chris/AppData/Local/Temp/_gbsbuild/obj/tilemap_attr_17.rel
                                          [ tilemap_attr_17 ]
C:/Users/chris/AppData/Local/Temp/_gbsbuild/obj/tilemap_attr_18.rel
                                          [ tilemap_attr_18 ]
C:/Users/chris/AppData/Local/Temp/_gbsbuild/obj/tilemap_attr_19.rel
                                          [ tilemap_attr_19 ]
C:/Users/chris/AppData/Local/Temp/_gbsbuild/obj/tilemap_attr_2.rel
                                          [ tilemap_attr_2 ]
C:/Users/chris/AppData/Local/Temp/_gbsbuild/obj/tilemap_attr_20.rel
                                          [ tilemap_attr_20 ]
C:/Users/chris/AppData/Local/Temp/_gbsbuild/obj/tilemap_attr_21.rel
                                          [ tilemap_attr_21 ]
C:/Users/chris/AppData/Local/Temp/_gbsbuild/obj/tilemap_attr_22.rel
                                          [ tilemap_attr_22 ]
C:/Users/chris/AppData/Local/Temp/_gbsbuild/obj/tilemap_attr_23.rel
                                          [ tilemap_attr_23 ]
C:/Users/chris/AppData/Local/Temp/_gbsbuild/obj/tilemap_attr_24.rel
                                          [ tilemap_attr_24 ]
C:/Users/chris/AppData/Local/Temp/_gbsbuild/obj/tilemap_attr_25.rel
                                          [ tilemap_attr_25 ]
C:/Users/chris/AppData/Local/Temp/_gbsbuild/obj/tilemap_attr_26.rel
                                          [ tilemap_attr_26 ]
C:/Users/chris/AppData/Local/Temp/_gbsbuild/obj/tilemap_attr_27.rel
                                          [ tilemap_attr_27 ]
C:/Users/chris/AppData/Local/Temp/_gbsbuild/obj/tilemap_attr_28.rel
                                          [ tilemap_attr_28 ]
C:/Users/chris/AppData/Local/Temp/_gbsbuild/obj/tilemap_attr_29.rel
                                          [ tilemap_attr_29 ]
C:/Users/chris/AppData/Local/Temp/_gbsbuild/obj/tilemap_attr_3.rel
                                          [ tilemap_attr_3 ]
C:/Users/chris/AppData/Local/Temp/_gbsbuild/obj/tilemap_attr_30.rel
                                          [ tilemap_attr_30 ]
C:/Users/chris/AppData/Local/Temp/_gbsbuild/obj/tilemap_attr_31.rel
                                          [ tilemap_attr_31 ]
C:/Users/chris/AppData/Local/Temp/_gbsbuild/obj/tilemap_attr_32.rel
                                          [ tilemap_attr_32 ]
C:/Users/chris/AppData/Local/Temp/_gbsbuild/obj/tilemap_attr_4.rel
                                          [ tilemap_attr_4 ]
C:/Users/chris/AppData/Local/Temp/_gbsbuild/obj/tilemap_attr_5.rel
                                          [ tilemap_attr_5 ]
C:/Users/chris/AppData/Local/Temp/_gbsbuild/obj/tilemap_attr_6.rel
                                          [ tilemap_attr_6 ]
C:/Users/chris/AppData/Local/Temp/_gbsbuild/obj/tilemap_attr_7.rel
                                          [ tilemap_attr_7 ]
C:/Users/chris/AppData/Local/Temp/_gbsbuild/obj/tilemap_attr_8.rel
                                          [ tilemap_attr_8 ]
C:/Users/chris/AppData/Local/Temp/_gbsbuild/obj/tilemap_attr_9.rel
                                          [ tilemap_attr_9 ]
C:/Users/chris/AppData/Local/Temp/_gbsbuild/obj/tileset_0.rel
                                          [ tileset_0 ]
C:/Users/chris/AppData/Local/Temp/_gbsbuild/obj/tileset_1.rel
                                          [ tileset_1 ]
C:/Users/chris/AppData/Local/Temp/_gbsbuild/obj/tileset_10.rel
                                          [ tileset_10 ]
C:/Users/chris/AppData/Local/Temp/_gbsbuild/obj/tileset_11.rel
                                          [ tileset_11 ]
C:/Users/chris/AppData/Local/Temp/_gbsbuild/obj/tileset_12.rel
                                          [ tileset_12 ]
C:/Users/chris/AppData/Local/Temp/_gbsbuild/obj/tileset_13.rel
                                          [ tileset_13 ]
C:/Users/chris/AppData/Local/Temp/_gbsbuild/obj/tileset_14.rel
                                          [ tileset_14 ]
C:/Users/chris/AppData/Local/Temp/_gbsbuild/obj/tileset_15.rel
                                          [ tileset_15 ]
C:/Users/chris/AppData/Local/Temp/_gbsbuild/obj/tileset_16.rel
                                          [ tileset_16 ]
C:/Users/chris/AppData/Local/Temp/_gbsbuild/obj/tileset_17.rel
                                          [ tileset_17 ]
C:/Users/chris/AppData/Local/Temp/_gbsbuild/obj/tileset_18.rel
                                          [ tileset_18 ]
C:/Users/chris/AppData/Local/Temp/_gbsbuild/obj/tileset_19.rel
                                          [ tileset_19 ]
C:/Users/chris/AppData/Local/Temp/_gbsbuild/obj/tileset_2.rel
                                          [ tileset_2 ]
C:/Users/chris/AppData/Local/Temp/_gbsbuild/obj/tileset_20.rel
                                          [ tileset_20 ]
C:/Users/chris/AppData/Local/Temp/_gbsbuild/obj/tileset_21.rel
                                          [ tileset_21 ]
C:/Users/chris/AppData/Local/Temp/_gbsbuild/obj/tileset_22.rel
                                          [ tileset_22 ]
C:/Users/chris/AppData/Local/Temp/_gbsbuild/obj/tileset_23.rel
                                          [ tileset_23 ]
C:/Users/chris/AppData/Local/Temp/_gbsbuild/obj/tileset_24.rel
                                          [ tileset_24 ]
C:/Users/chris/AppData/Local/Temp/_gbsbuild/obj/tileset_25.rel
                                          [ tileset_25 ]
C:/Users/chris/AppData/Local/Temp/_gbsbuild/obj/tileset_26.rel
                                          [ tileset_26 ]
C:/Users/chris/AppData/Local/Temp/_gbsbuild/obj/tileset_27.rel
                                          [ tileset_27 ]
C:/Users/chris/AppData/Local/Temp/_gbsbuild/obj/tileset_28.rel
                                          [ tileset_28 ]
C:/Users/chris/AppData/Local/Temp/_gbsbuild/obj/tileset_3.rel
                                          [ tileset_3 ]
C:/Users/chris/AppData/Local/Temp/_gbsbuild/obj/tileset_4.rel
                                          [ tileset_4 ]
C:/Users/chris/AppData/Local/Temp/_gbsbuild/obj/tileset_5.rel
                                          [ tileset_5 ]
C:/Users/chris/AppData/Local/Temp/_gbsbuild/obj/tileset_6.rel
                                          [ tileset_6 ]
C:/Users/chris/AppData/Local/Temp/_gbsbuild/obj/tileset_7.rel
                                          [ tileset_7 ]
C:/Users/chris/AppData/Local/Temp/_gbsbuild/obj/tileset_8.rel
                                          [ tileset_8 ]
C:/Users/chris/AppData/Local/Temp/_gbsbuild/obj/tileset_9.rel
                                          [ tileset_9 ]
C:/Users/chris/AppData/Local/Temp/_gbsbuild/obj/main.rel
                                          [ main ]
C:/Users/chris/AppData/Local/Temp/_gbsbuild/obj/adventure.rel
                                          [ adventure ]
C:/Users/chris/AppData/Local/Temp/_gbsbuild/obj/logo.rel
                                          [ logo ]
C:/Users/chris/AppData/Local/Temp/_gbsbuild/obj/platform.rel
                                          [ platform ]
C:/Users/chris/AppData/Local/Temp/_gbsbuild/obj/pointnclick.rel
                                          [ pointnclick ]
C:/Users/chris/AppData/Local/Temp/_gbsbuild/obj/shmup.rel
                                          [ shmup ]
C:/Users/chris/AppData/Local/Temp/_gbsbuild/obj/states_ptrs.rel
                                          [  ]
C:/Users/chris/AppData/Local/Temp/_gbsbuild/obj/topdown.rel
                                          [ topdown ]


Libraries Linked                          [ object file ]

C:\Users\chris\AppData\Local\Temp/_gbstools/gbdk/lib/small/asxxxx/gb/gb.lib
                                          [ fill_rect_wi.o ]
C:\Users\chris\AppData\Local\Temp/_gbstools/gbdk/lib/small/asxxxx/gb/gb.lib
                                          [ sfr.o ]
lib/hUGEDriver.lib                        [ hUGEDriver.obj.o ]
C:\Users\chris\AppData\Local\Temp/_gbstools/gbdk/lib/small/asxxxx/gbz80/gbz80.lib
                                          [ rand.o ]
C:\Users\chris\AppData\Local\Temp/_gbstools/gbdk/lib/small/asxxxx/gb/gb.lib
                                          [ cgb_palettes.o ]
C:\Users\chris\AppData\Local\Temp/_gbstools/gbdk/lib/small/asxxxx/gbz80/gbz80.lib
                                          [ mul.o ]
C:\Users\chris\AppData\Local\Temp/_gbstools/gbdk/lib/small/asxxxx/gbz80/gbz80.lib
                                          [ abs.o ]
C:\Users\chris\AppData\Local\Temp/_gbstools/gbdk/lib/small/asxxxx/gb/gb.lib
                                          [ set_wi_t.o ]
C:\Users\chris\AppData\Local\Temp/_gbstools/gbdk/lib/small/asxxxx/gb/gb.lib
                                          [ set_data.o ]
C:\Users\chris\AppData\Local\Temp/_gbstools/gbdk/lib/small/asxxxx/gbz80/gbz80.lib
                                          [ reverse.o ]
C:\Users\chris\AppData\Local\Temp/_gbstools/gbdk/lib/small/asxxxx/gb/gb.lib
                                          [ far_ptr.o ]
C:\Users\chris\AppData\Local\Temp/_gbstools/gbdk/lib/small/asxxxx/gb/gb.lib
                                          [ sgb.o ]
C:\Users\chris\AppData\Local\Temp/_gbstools/gbdk/lib/small/asxxxx/gb/gb.lib
                                          [ lcd.o ]
C:\Users\chris\AppData\Local\Temp/_gbstools/gbdk/lib/small/asxxxx/gb/gb.lib
                                          [ fill_rect.o ]
C:\Users\chris\AppData\Local\Temp/_gbstools/gbdk/lib/small/asxxxx/gb/gb.lib
                                          [ cpy_data.o ]
C:\Users\chris\AppData\Local\Temp/_gbstools/gbdk/lib/small/asxxxx/gb/gb.lib
                                          [ fill_rect_bk.o ]
C:\Users\chris\AppData\Local\Temp/_gbstools/gbdk/lib/small/asxxxx/gb/gb.lib
                                          [ pad.o ]
C:\Users\chris\AppData\Local\Temp/_gbstools/gbdk/lib/small/asxxxx/gb/gb.lib
                                          [ metasprites.o ]
C:\Users\chris\AppData\Local\Temp/_gbstools/gbdk/lib/small/asxxxx/gbz80/gbz80.lib
                                          [ __sdcc_call_hl.o ]
C:\Users\chris\AppData\Local\Temp/_gbstools/gbdk/lib/small/asxxxx/gbz80/gbz80.lib
                                          [ _memcpy.o ]
C:\Users\chris\AppData\Local\Temp/_gbstools/gbdk/lib/small/asxxxx/gbz80/gbz80.lib
                                          [ _memset.o ]
C:\Users\chris\AppData\Local\Temp/_gbstools/gbdk/lib/small/asxxxx/gb/gb.lib
                                          [ ___sdcc_bcall_ehl.o ]
C:\Users\chris\AppData\Local\Temp/_gbstools/gbdk/lib/small/asxxxx/gb/gb.lib
                                          [ cgb.o ]
C:\Users\chris\AppData\Local\Temp/_gbstools/gbdk/lib/small/asxxxx/gbz80/gbz80.lib
                                          [ div.o ]
C:\Users\chris\AppData\Local\Temp/_gbstools/gbdk/lib/small/asxxxx/gb/gb.lib
                                          [ set_bk_t.o ]
C:\Users\chris\AppData\Local\Temp/_gbstools/gbdk/lib/small/asxxxx/gb/gb.lib
                                          [ set_xy_t.o ]

ASxxxx Linker V03.00 + NoICE + sdld,  page 96.

User Base Address Definitions

_DATA=0xC0A0
_CODE=0x0200
ASxxxx Linker V03.00 + NoICE + sdld,  page 97.

User Global Definitions

.STACK=0xDF00
_shadow_OAM=0xC000
.refresh_OAM=0xFF80
__start_save=12

