ASxxxx Linker V03.00 + NoICE + sdld,  page 1.
Hexadecimal  [32-Bits]

Area                                    Addr        Size        Decimal Bytes (Attributes)
--------------------------------        ----        ----        ------- ----- ------------
.  .ABS.                            00000000    00000000 =           0. bytes (ABS,CON)

      Value  Global                              Global Defined In Module
      -----  --------------------------------   ------------------------
     00000000  .__.ABS.                           
     00000000  _rRAMG                             
     00000000  l__BASE                         
     00000000  l__BSS                          
     00000000  l__CABS                         
     00000000  l__CODE_0                       
     00000000  l__CRASH_HEADER                 
     00000000  l__CRASH_SCRATCH                
     00000000  l__DABS                         
     00000000  l__HEADER                       
     00000000  l__HEADER_LCD                   
     00000000  l__HEADER_SIO                   
     00000000  l__HEADER_TIMER                 
     00000000  l__HEAP                         
     00000000  l__HRAM                         
     00000000  l__LIT                          
     00000000  s__CABS                         
     00000000  s__CRASH_HEADER                 
     00000000  s__CRASH_HEADER0                
     00000000  s__CRASH_HEADER1                
     00000000  s__CRASH_SCRATCH                
     00000000  s__CRASH_SCRATCH2               
     00000000  s__DABS                         
     00000000  s__HEADER                       
     00000000  s__HEADER0                      
     00000000  s__HEADER1                      
     00000000  s__HEADER10                     
     00000000  s__HEADER11                     
     00000000  s__HEADER2                      
     00000000  s__HEADER3                      
     00000000  s__HEADER4                      
     00000000  s__HEADER5                      
     00000000  s__HEADER6                      
     00000000  s__HEADER7                      
     00000000  s__HEADER8                      
     00000000  s__HEADER9                      
     00000000  s__HEADER_LCD                   
     00000000  s__HEADER_LCD0                  
     00000000  s__HEADER_SIO                   
     00000000  s__HEADER_SIO0                  
     00000000  s__HEADER_TIMER                 
     00000000  s__HEADER_TIMER0                
     00000000  s__HEADERa                      
     00000000  s__HEADERb                      
     00000000  s__HEADERc                      
     00000000  s__HEADERd                      
     00000000  s__HEADERe                      
     00000000  s__HEADERf                      
     00000000  s__HRAM                         
     00000000  s__HRAM12                       
ASxxxx Linker V03.00 + NoICE + sdld,  page 2.
Hexadecimal  [32-Bits]

Area                                    Addr        Size        Decimal Bytes (Attributes)
--------------------------------        ----        ----        ------- ----- ------------
.  .ABS.                            00000000    00000000 =           0. bytes (ABS,CON)

      Value  Global                              Global Defined In Module
      -----  --------------------------------   ------------------------
     00000001  b_activate_actor                   actor
     00000001  b_activate_actors_in_col           actor
     00000001  b_activate_actors_in_row           actor
     00000001  b_actor_at_tile                    actor
     00000001  b_actor_get_frame_offset           actor
     00000001  b_actor_in_front_of_player         actor
     00000001  b_actor_overlapping_bb             actor
     00000001  b_actor_overlapping_player         actor
     00000001  b_actor_set_anim_idle              actor
     00000001  b_actor_set_anim_moving            actor
     00000001  b_actor_set_dir                    actor
     00000001  b_actor_set_frame_offset           actor
     00000001  b_actor_set_frames                 actor
     00000001  b_actors_handle_player_collision   actor
     00000001  b_actors_init                      actor
     00000001  b_camera_init                      camera
     00000001  b_camera_reset                     camera
     00000001  b_check_collision_in_direction     actor
     00000001  b_deactivate_actor                 actor
     00000001  b_parallax_init                    parallax
     00000001  b_player_init                      actor
     00000001  b_remove_LCD_ISRs                  interrupts
     00000001  b_scroll_init                      scroll
     00000001  b_scroll_repaint                   scroll
     00000001  b_scroll_reset                     scroll
     00000001  b_scroll_update                    scroll
     00000001  b_ui_draw_frame                    ui
     00000001  b_ui_draw_text_buffer_char         ui
     00000001  b_ui_init                          ui
     00000001  b_ui_load_tiles                    ui
     00000001  b_ui_run_menu                      ui
     00000001  b_ui_run_modal                     ui
     00000001  l__GSFINAL                      
     00000001  l__HEADER0                      
     00000001  l__HEADER11                     
     00000001  l__HEADER9                      
     00000001  l__HEADERa                      
     00000001  l__HEADERb                      
     00000001  l__HEADERd                      
     00000001  l__HEADERe                      
     00000002  b_camera_shake_frames              vm_camera
     00000002  b_itoa_fmt                         vm_ui_a
     00000002  b_script_execute                   vm
     00000002  b_script_runner_init               vm
     00000002  b_script_terminate                 vm
     00000002  b_scroll_rect                      
     00000002  b_vm_actor_activate                vm_actor
     00000002  b_vm_actor_deactivate              vm_actor
     00000002  b_vm_actor_emote                   vm_actor
     00000002  b_vm_actor_get_angle               vm_actor
     00000002  b_vm_actor_get_anim_frame          vm_actor
ASxxxx Linker V03.00 + NoICE + sdld,  page 3.
Hexadecimal  [32-Bits]

Area                                    Addr        Size        Decimal Bytes (Attributes)
--------------------------------        ----        ----        ------- ----- ------------
.  .ABS.                            00000000    00000000 =           0. bytes (ABS,CON)

      Value  Global                              Global Defined In Module
      -----  --------------------------------   ------------------------
     00000002  b_vm_actor_get_dir                 vm_actor
     00000002  b_vm_actor_get_pos                 vm_actor
     00000002  b_vm_actor_move_to                 vm_actor
     00000002  b_vm_actor_replace_tile            vm_actor
     00000002  b_vm_actor_set_anim                vm_actor
     00000002  b_vm_actor_set_anim_frame          vm_actor
     00000002  b_vm_actor_set_anim_set            vm_actor
     00000002  b_vm_actor_set_anim_tick           vm_actor
     00000002  b_vm_actor_set_bounds              vm_actor
     00000002  b_vm_actor_set_coll_enabled        vm_actor
     00000002  b_vm_actor_set_dir                 vm_actor
     00000002  b_vm_actor_set_hidden              vm_actor
     00000002  b_vm_actor_set_move_speed          vm_actor
     00000002  b_vm_actor_set_pos                 vm_actor
     00000002  b_vm_actor_set_spritesheet         vm_actor
     00000002  b_vm_actor_set_spritesheet_by_re   vm_actor
     00000002  b_vm_actor_terminate_update        vm_actor
     00000002  b_vm_call                          vm
     00000002  b_vm_call_far                      vm
     00000002  b_vm_call_rel                      vm
     00000002  b_vm_camera_move_to                vm_camera
     00000002  b_vm_camera_set_pos                vm_camera
     00000002  b_vm_choice                        vm_ui
     00000002  b_vm_context_prepare               vm_gameboy
     00000002  b_vm_cos_scale                     vm_math
     00000002  b_vm_display_text                  vm_ui
     00000002  b_vm_fade_in                       vm_gameboy
     00000002  b_vm_fade_out                      vm_gameboy
     00000002  b_vm_get_indirect                  vm
     00000002  b_vm_get_int16                     vm
     00000002  b_vm_get_int8                      vm
     00000002  b_vm_get_tile_xy                   vm_gameboy
     00000002  b_vm_get_tlocal                    vm
     00000002  b_vm_get_uint8                     vm
     00000002  b_vm_hide_sprites                  vm_gameboy
     00000002  b_vm_idle                          vm
     00000002  b_vm_if                            vm
     00000002  b_vm_if_const                      vm
     00000002  b_vm_input_attach                  vm_gameboy
     00000002  b_vm_input_detach                  vm_gameboy
     00000002  b_vm_input_get                     vm_gameboy
     00000002  b_vm_input_wait                    vm_gameboy
     00000002  b_vm_invoke                        vm
     00000002  b_vm_join                          vm
     00000002  b_vm_jump                          vm
     00000002  b_vm_jump_rel                      vm
     00000002  b_vm_load_cursor                   vm_ui
     00000002  b_vm_load_frame                    vm_ui
     00000002  b_vm_load_palette                  vm_palette
     00000002  b_vm_lock                          vm
     00000002  b_vm_loop                          vm
ASxxxx Linker V03.00 + NoICE + sdld,  page 4.
Hexadecimal  [32-Bits]

Area                                    Addr        Size        Decimal Bytes (Attributes)
--------------------------------        ----        ----        ------- ----- ------------
.  .ABS.                            00000000    00000000 =           0. bytes (ABS,CON)

      Value  Global                              Global Defined In Module
      -----  --------------------------------   ------------------------
     00000002  b_vm_loop_rel                      vm
     00000002  b_vm_memcpy                        vm
     00000002  b_vm_memset                        vm
     00000002  b_vm_music_mute                    vm_music
     00000002  b_vm_music_play                    vm_music
     00000002  b_vm_music_routine                 vm_music
     00000002  b_vm_music_setpos                  vm_music
     00000002  b_vm_music_stop                    vm_music
     00000002  b_vm_overlay_clear                 vm_ui
     00000002  b_vm_overlay_hide                  vm_ui
     00000002  b_vm_overlay_move_to               vm_ui
     00000002  b_vm_overlay_scroll                vm_ui
     00000002  b_vm_overlay_set_scroll            vm_ui
     00000002  b_vm_overlay_set_submap            vm_ui
     00000002  b_vm_overlay_setpos                vm_ui
     00000002  b_vm_overlay_show                  vm_ui
     00000002  b_vm_overlay_wait                  vm_ui
     00000002  b_vm_poll                          vm_gameboy
     00000002  b_vm_poll_loaded                   vm
     00000002  b_vm_pop                           vm
     00000002  b_vm_projectile_launch             vm_projectiles
     00000002  b_vm_push                          vm
     00000002  b_vm_push_reference                vm
     00000002  b_vm_push_value                    vm
     00000002  b_vm_push_value_ind                vm
     00000002  b_vm_raise                         vm
     00000002  b_vm_rand                          vm
     00000002  b_vm_randomize                     vm
     00000002  b_vm_replace_tile                  vm_gameboy
     00000002  b_vm_replace_tile_xy               vm_gameboy
     00000002  b_vm_reserve                       vm
     00000002  b_vm_ret                           vm
     00000002  b_vm_ret_far                       vm
     00000002  b_vm_rtc_get                       vm_rtc
     00000002  b_vm_rtc_latch                     vm_rtc
     00000002  b_vm_rtc_set                       vm_rtc
     00000002  b_vm_rtc_start                     vm_rtc
     00000002  b_vm_rumble                        vm_gameboy
     00000002  b_vm_save_clear                    vm_load_save
     00000002  b_vm_save_peek                     vm_load_save
     00000002  b_vm_scene_pop                     vm_scene
     00000002  b_vm_scene_pop_all                 vm_scene
     00000002  b_vm_scene_push                    vm_scene
     00000002  b_vm_scene_stack_reset             vm_scene
     00000002  b_vm_set                           vm
     00000002  b_vm_set_const                     vm
     00000002  b_vm_set_const_int16               vm
     00000002  b_vm_set_const_int8                vm
     00000002  b_vm_set_font                      vm_ui
     00000002  b_vm_set_indirect                  vm
     00000002  b_vm_set_int16                     vm
ASxxxx Linker V03.00 + NoICE + sdld,  page 5.
Hexadecimal  [32-Bits]

Area                                    Addr        Size        Decimal Bytes (Attributes)
--------------------------------        ----        ----        ------- ----- ------------
.  .ABS.                            00000000    00000000 =           0. bytes (ABS,CON)

      Value  Global                              Global Defined In Module
      -----  --------------------------------   ------------------------
     00000002  b_vm_set_int8                      vm
     00000002  b_vm_set_print_dir                 vm_ui
     00000002  b_vm_set_sprite_mode               vm_gameboy
     00000002  b_vm_set_uint8                     vm
     00000002  b_vm_show_sprites                  vm_gameboy
     00000002  b_vm_sin_scale                     vm_math
     00000002  b_vm_sio_exchange                  vm_sio
     00000002  b_vm_sio_set_mode                  vm_sio
     00000002  b_vm_sound_mastervol               vm_music
     00000002  b_vm_sound_play                    vm_music
     00000002  b_vm_switch_text_layer             vm_ui
     00000002  b_vm_systime                       vm
     00000002  b_vm_terminate                     vm
     00000002  b_vm_test_terminate                vm
     00000002  b_vm_timer_prepare                 vm_gameboy
     00000002  b_vm_timer_reset                   vm_gameboy
     00000002  b_vm_timer_set                     vm_gameboy
     00000002  b_vm_timer_stop                    vm_gameboy
     00000002  b_vm_unlock                        vm
     00000002  b_vm_wave_play                     vm_music
     00000002  b_wait_frames                      vm
     00000002  l__HEADER5                      
     00000002  l__HEADERc                      
     00000002  l__HEADERf                      
     00000003  b_adventure_init                   adventure
     00000003  b_adventure_update                 adventure
     00000003  b_logo_init                        logo
     00000003  b_logo_update                      logo
     00000003  b_platform_init                    platform
     00000003  b_platform_update                  platform
     00000003  b_pointnclick_init                 pointnclick
     00000003  b_pointnclick_update               pointnclick
     00000003  b_shmup_init                       shmup
     00000003  b_shmup_update                     shmup
     00000003  b_topdown_init                     topdown
     00000003  b_topdown_update                   topdown
     00000003  l__HEADER8                      
     00000003  l__HEADER_LCD0                  
     00000003  l__HRAM12                       
     00000004  __start_save                    
     00000004  b_SIO_init                         sio
     00000004  b_core_reset                       core
     00000004  b_core_run                         core
     00000004  b_data_clear                       load_save
     00000004  b_data_init                        load_save
     00000004  b_data_load                        load_save
     00000004  b_data_peek                        load_save
     00000004  b_data_save                        load_save
     00000004  b_do_load_palette                  data_manager
     00000004  b_events_init                      events
     00000004  b_fade_applypalettechange          fade_manager
ASxxxx Linker V03.00 + NoICE + sdld,  page 6.
Hexadecimal  [32-Bits]

Area                                    Addr        Size        Decimal Bytes (Attributes)
--------------------------------        ----        ----        ------- ----- ------------
.  .ABS.                            00000000    00000000 =           0. bytes (ABS,CON)

      Value  Global                              Global Defined In Module
      -----  --------------------------------   ------------------------
     00000004  b_fade_in                          fade_manager
     00000004  b_fade_in_modal                    fade_manager
     00000004  b_fade_init                        fade_manager
     00000004  b_fade_out                         fade_manager
     00000004  b_fade_out_modal                   fade_manager
     00000004  b_fade_setspeed                    fade_manager
     00000004  b_fade_update                      fade_manager
     00000004  b_input_init                       input
     00000004  b_load_background                  data_manager
     00000004  b_load_bkg_tileset                 data_manager
     00000004  b_load_bounds                      data_manager
     00000004  b_load_emote                       data_manager
     00000004  b_load_init                        data_manager
     00000004  b_load_player                      data_manager
     00000004  b_load_scene                       data_manager
     00000004  b_load_sprite                      data_manager
     00000004  b_music_events_poll                music_manager
     00000004  b_music_init                       music_manager
     00000004  b_music_stop                       music_manager
     00000004  b_palette_init                     palette
     00000004  b_projectile_launch                projectiles
     00000004  b_projectiles_init                 projectiles
     00000004  b_restore_sram                     flasher
     00000004  b_restore_sram_bank                flasher
     00000004  b_save_sram                        flasher
     00000004  b_set_sample                       sample_player
     00000004  b_set_sgb_border                   sgb_border
     00000004  b_sound_init                       music_manager
     00000004  b_sound_play                       music_manager
     00000004  b_timers_init                      events
     00000004  b_trigger_activate_at              trigger
     00000004  b_trigger_activate_at_intersecti   trigger
     00000004  b_trigger_at_intersection          trigger
     00000004  b_trigger_at_tile                  trigger
     00000004  b_trigger_interact                 trigger
     00000004  b_trigger_reset                    trigger
     00000004  b_wave_play                        music_manager
     00000004  l__CRASH_HEADER1                
     00000004  l__HEADER_SIO0                  
     00000004  l__HEADER_TIMER0                
     00000005  ___bank_cursor_image               cursor_image
     00000005  ___bank_font_0                     font_0
     00000005  ___bank_music_track_0__Data        music_track_0__Data
     00000005  ___bank_music_track_1__Data        music_track_1__Data
     00000005  ___bank_script_s7a5_update         script_s7a5_update
     00000005  ___bank_tileset_0                  tileset_0
     00000005  ___bank_tileset_18                 tileset_18
     00000005  ___bank_tileset_8                  tileset_8
     00000005  l__CRASH_HEADER0                
     00000005  l__HEADER1                      
     00000006  ___bank_scene_0                    scene_0
ASxxxx Linker V03.00 + NoICE + sdld,  page 7.
Hexadecimal  [32-Bits]

Area                                    Addr        Size        Decimal Bytes (Attributes)
--------------------------------        ----        ----        ------- ----- ------------
.  .ABS.                            00000000    00000000 =           0. bytes (ABS,CON)

      Value  Global                              Global Defined In Module
      -----  --------------------------------   ------------------------
     00000006  ___bank_scene_0_collisions         scene_0_collisions
     00000006  ___bank_scene_1_collisions         scene_1_collisions
     00000006  ___bank_scene_2_collisions         scene_2_collisions
     00000006  ___bank_scene_3_collisions         scene_3_collisions
     00000006  ___bank_scene_4_collisions         scene_4_collisions
     00000006  ___bank_scene_5_collisions         scene_5_collisions
     00000006  ___bank_scene_6_actors             scene_6_actors
     00000006  ___bank_scene_6_collisions         scene_6_collisions
     00000006  ___bank_scene_7_collisions         scene_7_collisions
     00000006  ___bank_scene_8_actors             scene_8_actors
     00000006  ___bank_scene_8_collisions         scene_8_collisions
     00000006  ___bank_script_event_player_hits   script_event_player_hitstun_
     00000006  ___bank_script_input_1             script_input_1
     00000006  ___bank_script_input_5             script_input_5
     00000006  ___bank_script_input_6             script_input_6
     00000006  ___bank_spritesheet_14             spritesheet_14
     00000006  ___bank_spritesheet_4              spritesheet_4
     00000006  ___bank_tilemap_0                  tilemap_0
     00000006  ___bank_tilemap_1                  tilemap_1
     00000006  ___bank_tilemap_2                  tilemap_2
     00000006  ___bank_tilemap_3                  tilemap_3
     00000006  ___bank_tilemap_4                  tilemap_4
     00000006  ___bank_tilemap_5                  tilemap_5
     00000006  ___bank_tilemap_6                  tilemap_6
     00000006  ___bank_tilemap_7                  tilemap_7
     00000006  ___bank_tilemap_8                  tilemap_8
     00000006  ___bank_tileset_1                  tileset_1
     00000006  ___bank_tileset_2                  tileset_2
     00000006  ___bank_tileset_3                  tileset_3
     00000006  l__HEADER7                      
     00000007  ___bank_background_0               background_0
     00000007  ___bank_background_1               background_1
     00000007  ___bank_background_2               background_2
     00000007  ___bank_background_3               background_3
     00000007  ___bank_background_4               background_4
     00000007  ___bank_background_5               background_5
     00000007  ___bank_background_6               background_6
     00000007  ___bank_background_7               background_7
     00000007  ___bank_background_8               background_8
     00000007  ___bank_bootstrap_script           
     00000007  ___bank_frame_image                frame_image
     00000007  ___bank_palette_0                  palette_0
     00000007  ___bank_palette_1                  palette_1
     00000007  ___bank_scene_0_actors             scene_0_actors
     00000007  ___bank_scene_0_projectiles        scene_0_projectiles
     00000007  ___bank_scene_0_sprites            scene_0_sprites
     00000007  ___bank_scene_0_triggers           scene_0_triggers
     00000007  ___bank_scene_1                    scene_1
     00000007  ___bank_scene_1_actors             scene_1_actors
     00000007  ___bank_scene_1_projectiles        scene_1_projectiles
     00000007  ___bank_scene_1_sprites            scene_1_sprites
ASxxxx Linker V03.00 + NoICE + sdld,  page 8.
Hexadecimal  [32-Bits]

Area                                    Addr        Size        Decimal Bytes (Attributes)
--------------------------------        ----        ----        ------- ----- ------------
.  .ABS.                            00000000    00000000 =           0. bytes (ABS,CON)

      Value  Global                              Global Defined In Module
      -----  --------------------------------   ------------------------
     00000007  ___bank_scene_2                    scene_2
     00000007  ___bank_scene_3                    scene_3
     00000007  ___bank_scene_3_actors             scene_3_actors
     00000007  ___bank_scene_3_projectiles        scene_3_projectiles
     00000007  ___bank_scene_3_sprites            scene_3_sprites
     00000007  ___bank_scene_3_triggers           scene_3_triggers
     00000007  ___bank_scene_4                    scene_4
     00000007  ___bank_scene_4_actors             scene_4_actors
     00000007  ___bank_scene_4_projectiles        scene_4_projectiles
     00000007  ___bank_scene_4_sprites            scene_4_sprites
     00000007  ___bank_scene_4_triggers           scene_4_triggers
     00000007  ___bank_scene_5                    scene_5
     00000007  ___bank_scene_5_actors             scene_5_actors
     00000007  ___bank_scene_5_projectiles        scene_5_projectiles
     00000007  ___bank_scene_5_sprites            scene_5_sprites
     00000007  ___bank_scene_5_triggers           scene_5_triggers
     00000007  ___bank_scene_6                    scene_6
     00000007  ___bank_scene_6_projectiles        scene_6_projectiles
     00000007  ___bank_scene_6_sprites            scene_6_sprites
     00000007  ___bank_scene_6_triggers           scene_6_triggers
     00000007  ___bank_scene_7                    scene_7
     00000007  ___bank_scene_7_actors             scene_7_actors
     00000007  ___bank_scene_7_projectiles        scene_7_projectiles
     00000007  ___bank_scene_7_sprites            scene_7_sprites
     00000007  ___bank_scene_7_triggers           scene_7_triggers
     00000007  ___bank_scene_8                    scene_8
     00000007  ___bank_scene_8_projectiles        scene_8_projectiles
     00000007  ___bank_scene_8_sprites            scene_8_sprites
     00000007  ___bank_scene_8_triggers           scene_8_triggers
     00000007  ___bank_script_engine_init         
     00000007  ___bank_script_event_enemy_hitst   script_event_enemy_hitstun
     00000007  ___bank_script_event_player_hits   script_event_player_hitstun
     00000007  ___bank_script_event_player_hits   script_event_player_hitstun_
     00000007  ___bank_script_init_custominputs   script_init_custominputs
     00000007  ___bank_script_init_player_jumps   script_init_player_jumpsfx
     00000007  ___bank_script_init_resetvariabl   script_init_resetvariables
     00000007  ___bank_script_input_0             script_input_0
     00000007  ___bank_script_input_2             script_input_2
     00000007  ___bank_script_input_3             script_input_3
     00000007  ___bank_script_input_4             script_input_4
     00000007  ___bank_script_s0_init             script_s0_init
     00000007  ___bank_script_s0_p_hit1           script_s0_p_hit1
     00000007  ___bank_script_s0a1_interact       script_s0a1_interact
     00000007  ___bank_script_s0a4_interact       script_s0a4_interact
     00000007  ___bank_script_s0a4_update         script_s0a4_update
     00000007  ___bank_script_s0t0_interact       script_s0t0_interact
     00000007  ___bank_script_s1_init             script_s1_init
     00000007  ___bank_script_s2_init             script_s2_init
     00000007  ___bank_script_s3_init             script_s3_init
     00000007  ___bank_script_s3_p_hit1           script_s3_p_hit1
     00000007  ___bank_script_s3a0_interact       script_s3a0_interact
ASxxxx Linker V03.00 + NoICE + sdld,  page 9.
Hexadecimal  [32-Bits]

Area                                    Addr        Size        Decimal Bytes (Attributes)
--------------------------------        ----        ----        ------- ----- ------------
.  .ABS.                            00000000    00000000 =           0. bytes (ABS,CON)

      Value  Global                              Global Defined In Module
      -----  --------------------------------   ------------------------
     00000007  ___bank_script_s3a0_update         script_s3a0_update
     00000007  ___bank_script_s3a2_interact       script_s3a2_interact
     00000007  ___bank_script_s3a2_update         script_s3a2_update
     00000007  ___bank_script_s3a3_interact       script_s3a3_interact
     00000007  ___bank_script_s3a3_update         script_s3a3_update
     00000007  ___bank_script_s3t0_interact       script_s3t0_interact
     00000007  ___bank_script_s4_init             script_s4_init
     00000007  ___bank_script_s4a2_interact       script_s4a2_interact
     00000007  ___bank_script_s4a2_update         script_s4a2_update
     00000007  ___bank_script_s4a3_interact       script_s4a3_interact
     00000007  ___bank_script_s4a3_update         script_s4a3_update
     00000007  ___bank_script_s4t0_interact       script_s4t0_interact
     00000007  ___bank_script_s4t1_interact       script_s4t1_interact
     00000007  ___bank_script_s5_init             script_s5_init
     00000007  ___bank_script_s5_p_hit1           script_s5_p_hit1
     00000007  ___bank_script_s5a0_interact       script_s5a0_interact
     00000007  ___bank_script_s5a0_update         script_s5a0_update
     00000007  ___bank_script_s5t0_interact       script_s5t0_interact
     00000007  ___bank_script_s6_init             script_s6_init
     00000007  ___bank_script_s6_p_hit1           script_s6_p_hit1
     00000007  ___bank_script_s6a2_interact       script_s6a2_interact
     00000007  ___bank_script_s6a2_update         script_s6a2_update
     00000007  ___bank_script_s6a3_interact       script_s6a3_interact
     00000007  ___bank_script_s6a3_update         script_s6a3_update
     00000007  ___bank_script_s6a4_interact       script_s6a4_interact
     00000007  ___bank_script_s6a4_update         script_s6a4_update
     00000007  ___bank_script_s6t0_interact       script_s6t0_interact
     00000007  ___bank_script_s7_init             script_s7_init
     00000007  ___bank_script_s7_p_hit1           script_s7_p_hit1
     00000007  ___bank_script_s7a4_interact       script_s7a4_interact
     00000007  ___bank_script_s7a5_interact       script_s7a5_interact
     00000007  ___bank_script_s7t0_interact       script_s7t0_interact
     00000007  ___bank_script_s8_init             script_s8_init
     00000007  ___bank_script_s8_p_hit1           script_s8_p_hit1
     00000007  ___bank_script_s8a2_interact       script_s8a2_interact
     00000007  ___bank_script_s8a2_update         script_s8a2_update
     00000007  ___bank_script_s8a3_interact       script_s8a3_interact
     00000007  ___bank_script_s8a3_update         script_s8a3_update
     00000007  ___bank_script_s8t0_interact       script_s8t0_interact
     00000007  ___bank_script_sfx_fireball_atta   script_sfx_fireball_attack
     00000007  ___bank_script_sfx_jump            script_sfx_jump
     00000007  ___bank_script_sfx_melee_attack    script_sfx_melee_attack
     00000007  ___bank_spritesheet_0              spritesheet_0
     00000007  ___bank_spritesheet_1              spritesheet_1
     00000007  ___bank_spritesheet_10             spritesheet_10
     00000007  ___bank_spritesheet_11             spritesheet_11
     00000007  ___bank_spritesheet_12             spritesheet_12
     00000007  ___bank_spritesheet_13             spritesheet_13
     00000007  ___bank_spritesheet_15             spritesheet_15
     00000007  ___bank_spritesheet_16             spritesheet_16
     00000007  ___bank_spritesheet_17             spritesheet_17
ASxxxx Linker V03.00 + NoICE + sdld,  page 10.
Hexadecimal  [32-Bits]

Area                                    Addr        Size        Decimal Bytes (Attributes)
--------------------------------        ----        ----        ------- ----- ------------
.  .ABS.                            00000000    00000000 =           0. bytes (ABS,CON)

      Value  Global                              Global Defined In Module
      -----  --------------------------------   ------------------------
     00000007  ___bank_spritesheet_2              spritesheet_2
     00000007  ___bank_spritesheet_3              spritesheet_3
     00000007  ___bank_spritesheet_5              spritesheet_5
     00000007  ___bank_spritesheet_6              spritesheet_6
     00000007  ___bank_spritesheet_7              spritesheet_7
     00000007  ___bank_spritesheet_8              spritesheet_8
     00000007  ___bank_spritesheet_9              spritesheet_9
     00000007  ___bank_spritesheet_none           spritesheet_none
     00000007  ___bank_tileset_10                 tileset_10
     00000007  ___bank_tileset_11                 tileset_11
     00000007  ___bank_tileset_12                 tileset_12
     00000007  ___bank_tileset_13                 tileset_13
     00000007  ___bank_tileset_14                 tileset_14
     00000007  ___bank_tileset_15                 tileset_15
     00000007  ___bank_tileset_16                 tileset_16
     00000007  ___bank_tileset_17                 tileset_17
     00000007  ___bank_tileset_19                 tileset_19
     00000007  ___bank_tileset_20                 tileset_20
     00000007  ___bank_tileset_21                 tileset_21
     00000007  ___bank_tileset_4                  tileset_4
     00000007  ___bank_tileset_5                  tileset_5
     00000007  ___bank_tileset_6                  tileset_6
     00000007  ___bank_tileset_7                  tileset_7
     00000007  ___bank_tileset_9                  tileset_9
     00000007  l__HEADER2                      
     00000008  l__HEADER3                      
     0000000E  l__INITIALIZED                  
     0000000E  l__INITIALIZER                  
     0000002D  l__GSINIT                       
     00000030  l__HEADER6                      
     0000004E  l__HEADER4                      
     00000082  l__HEADER10                     
     000001CB  l__CRASH_SCRATCH2               
     00000200  s__CODE                         
     00000B96  l__CODE                         
     00000D96  s__HOME                         
     000018FB  l__DATA                         
     00002000  _rROMB0                            
     000026C8  l__HOME                         
     0000270D  l__CODE_4                       
     000027A4  l__CODE_1                       
     00002ADB  l__CODE_3                       
     00002F74  l__CODE_7                       
     00003000  _rROMB1                            
     0000345E  s__BASE                         
     0000345E  s__CODE_0                       
     0000345E  s__INITIALIZER                  
     0000345E  s__LIT                          
     0000346C  s__GSINIT                       
     00003499  s__GSFINAL                      
     000037E2  l__CODE_2                       
ASxxxx Linker V03.00 + NoICE + sdld,  page 11.
Hexadecimal  [32-Bits]

Area                                    Addr        Size        Decimal Bytes (Attributes)
--------------------------------        ----        ----        ------- ----- ------------
.  .ABS.                            00000000    00000000 =           0. bytes (ABS,CON)

      Value  Global                              Global Defined In Module
      -----  --------------------------------   ------------------------
     00004000  _RTC_SELECT_REG                    vm_rtc
     00004000  _rRAMB                             
     00004000  l__CODE_5                       
     00004000  l__CODE_6                       
     00006000  _RTC_LATCH_REG                     vm_rtc
     00008000  __VRAM                             
     00008000  __VRAM8000                         
     00008800  __VRAM8800                         
     00009000  __VRAM9000                         
     00009800  __SCRN0                            
     00009C00  __SCRN1                            
     0000A000  _RTC_VALUE_REG                     vm_rtc
     0000A000  __SRAM                             
     0000C000  __RAM                              
     0000C000  _shadow_OAM                     
     0000C0A0  s__DATA                         
     0000D000  __RAMBANK                          
     0000D99B  s__BSS                          
     0000D99B  s__INITIALIZED                  
     0000D9A9  s__HEAP                         
     0000DF00  .STACK                          
     0000DF00  _shadow_OAM2                       absolute
     0000DFA0  _BkgPalette                        absolute
     0000DFE0  _vwf_tile_data                     absolute
     0000FE00  __OAMRAM                           
     0000FF00  _P1_REG                            
     0000FF00  __IO                               
     0000FF01  _SB_REG                            
     0000FF02  _SC_REG                            
     0000FF04  _DIV_REG                           
     0000FF05  _TIMA_REG                          
     0000FF06  _TMA_REG                           
     0000FF07  _TAC_REG                           
     0000FF0F  _IF_REG                            
     0000FF10  _NR10_REG                          
     0000FF11  _NR11_REG                          
     0000FF12  _NR12_REG                          
     0000FF13  _NR13_REG                          
     0000FF14  _NR14_REG                          
     0000FF16  _NR21_REG                          
     0000FF17  _NR22_REG                          
     0000FF18  _NR23_REG                          
     0000FF19  _NR24_REG                          
     0000FF1A  _NR30_REG                          
     0000FF1B  _NR31_REG                          
     0000FF1C  _NR32_REG                          
     0000FF1D  _NR33_REG                          
     0000FF1E  _NR34_REG                          
     0000FF20  _NR41_REG                          
     0000FF21  _NR42_REG                          
     0000FF22  _NR43_REG                          
ASxxxx Linker V03.00 + NoICE + sdld,  page 12.
Hexadecimal  [32-Bits]

Area                                    Addr        Size        Decimal Bytes (Attributes)
--------------------------------        ----        ----        ------- ----- ------------
.  .ABS.                            00000000    00000000 =           0. bytes (ABS,CON)

      Value  Global                              Global Defined In Module
      -----  --------------------------------   ------------------------
     0000FF23  _NR44_REG                          
     0000FF24  _NR50_REG                          
     0000FF25  _NR51_REG                          
     0000FF26  _NR52_REG                          
     0000FF30  _PCM_SAMPLE                        
     0000FF30  __AUD3WAVERAM                      
     0000FF40  _LCDC_REG                          
     0000FF41  _STAT_REG                          
     0000FF42  _SCY_REG                           
     0000FF43  _SCX_REG                           
     0000FF44  _LY_REG                            
     0000FF45  _LYC_REG                           
     0000FF46  _DMA_REG                           
     0000FF47  _BGP_REG                           
     0000FF48  _OBP0_REG                          
     0000FF49  _OBP1_REG                          
     0000FF4A  _WY_REG                            
     0000FF4B  _WX_REG                            
     0000FF4D  _KEY1_REG                          
     0000FF4F  _VBK_REG                           
     0000FF51  _HDMA1_REG                         
     0000FF52  _HDMA2_REG                         
     0000FF53  _HDMA3_REG                         
     0000FF54  _HDMA4_REG                         
     0000FF55  _HDMA5_REG                         
     0000FF56  _RP_REG                            
     0000FF68  _BCPS_REG                          
     0000FF69  _BCPD_REG                          
     0000FF6A  _OCPS_REG                          
     0000FF6B  _OCPD_REG                          
     0000FF70  _SVBK_REG                          
     0000FF76  _PCM12_REG                         
     0000FF77  _PCM34_REG                         
     0000FF80  .refresh_OAM                    
     0000FF80  __HRAM                             
     0000FFFF  _IE_REG                            
     00014000  s__CODE_1                       
     00024000  s__CODE_2                       
     00034000  s__CODE_3                       
     00044000  s__CODE_4                       
     00054000  s__CODE_5                       
     00064000  s__CODE_6                       
     00074000  s__CODE_7                       
ASxxxx Linker V03.00 + NoICE + sdld,  page 13.
Hexadecimal  [32-Bits]

Area                                    Addr        Size        Decimal Bytes (Attributes)
--------------------------------        ----        ----        ------- ----- ------------
_CODE                               00000200    00000B96 =        2966. bytes (REL,CON)

      Value  Global                              Global Defined In Module
      -----  --------------------------------   ------------------------
     00000200  ___HandleCrash                     
     0000020A  _SIO_send_byte                     
     0000021D  _SIO_receive                       
     0000022E  _hide_hardware_sprites             OAM_utils
     0000025A  _SetTile                           
     00000269  _set_win_tile_xy                   
     0000026E  _set_bkg_tile_xy                   
     00000291  _GetWinAddr                        
     00000299  _GetBkgAddr                        
     000002A7  _state_init                        
     000002AC  _state_update                      
     000002CE  _ui_time_masks                     
     000002D6  _ui_print_shift_char               
     00000359  _ui_draw_frame_row                 
     00000362  .ui_draw_frame_row                 
     0000038B  _script_cmds                       vm_instructions
     00000529  _start_scene_x                     
     0000052B  _start_scene_y                     
     0000052D  _start_scene_dir                   
     0000052E  _start_scene                       
     00000531  _start_player_move_speed           
     00000532  _start_player_anim_tick            
     00000533  _ui_fonts                          
     00000536  _core_reset_hook                   main
     0000053E  _main                              main
     00000546  _state_start_fns                   
     00000558  _state_update_fns                  
     0000056A  _hUGE_init_banked                  hUGEDriver_obj
     0000056E  _hUGE_init                         hUGEDriver_obj
     00000579  _hUGE_mute_channel_banked          hUGEDriver_obj
     0000057D  _hUGE_mute_channel                 hUGEDriver_obj
     0000058A  hUGE_mute_channel                  hUGEDriver_obj
     000005A4  _hUGE_set_position_banked          hUGEDriver_obj
     000005A8  _hUGE_set_position                 hUGEDriver_obj
     000005B1  hUGE_init                          hUGEDriver_obj
     0000081E  hUGE_set_position                  hUGEDriver_obj
     000009BC  _hUGE_dosound                      hUGEDriver_obj
     000009BC  _hUGE_dosound_banked               hUGEDriver_obj
     00000CD0  .sgb_check                         
     00000CD0  _sgb_check                         
     00000D18  _sgb_transfer                      
     00000D1D  .sgb_transfer                      
     00000D5E  ___move_metasprite                 Metasprites

ASxxxx Linker V03.00 + NoICE + sdld,  page 14.
Hexadecimal  [32-Bits]

Area                                    Addr        Size        Decimal Bytes (Attributes)
--------------------------------        ----        ----        ------- ----- ------------
_HEADER0                            00000000    00000001 =           1. bytes (ABS,CON)

      Value  Global                              Global Defined In Module
      -----  --------------------------------   ------------------------
     00000020  .call_hl                           Runtime

ASxxxx Linker V03.00 + NoICE + sdld,  page 15.
Hexadecimal  [32-Bits]

Area                                    Addr        Size        Decimal Bytes (Attributes)
--------------------------------        ----        ----        ------- ----- ------------
_HEADER1                            00000000    00000005 =           5. bytes (ABS,CON)

      Value  Global                              Global Defined In Module
      -----  --------------------------------   ------------------------
     00000028  .MemsetSmall                       Runtime

ASxxxx Linker V03.00 + NoICE + sdld,  page 16.
Hexadecimal  [32-Bits]

Area                                    Addr        Size        Decimal Bytes (Attributes)
--------------------------------        ----        ----        ------- ----- ------------
_HEADER2                            00000000    00000007 =           7. bytes (ABS,CON)

      Value  Global                              Global Defined In Module
      -----  --------------------------------   ------------------------
     00000030  .MemcpySmall                       Runtime

ASxxxx Linker V03.00 + NoICE + sdld,  page 17.
Hexadecimal  [32-Bits]

Area                                    Addr        Size        Decimal Bytes (Attributes)
--------------------------------        ----        ----        ------- ----- ------------
_HEADER3                            00000000    00000008 =           8. bytes (ABS,CON)

      Value  Global                              Global Defined In Module
      -----  --------------------------------   ------------------------
ASxxxx Linker V03.00 + NoICE + sdld,  page 18.
Hexadecimal  [32-Bits]

Area                                    Addr        Size        Decimal Bytes (Attributes)
--------------------------------        ----        ----        ------- ----- ------------
_HEADER4                            00000000    0000004E =          78. bytes (ABS,CON)

      Value  Global                              Global Defined In Module
      -----  --------------------------------   ------------------------
     00000080  .int                               Runtime
     0000008F  _wait_int_handler                  Runtime
     0000009C  __standard_VBL_handler             Runtime
     000000AC  _refresh_OAM                       Runtime

ASxxxx Linker V03.00 + NoICE + sdld,  page 19.
Hexadecimal  [32-Bits]

Area                                    Addr        Size        Decimal Bytes (Attributes)
--------------------------------        ----        ----        ------- ----- ------------
_HEADER5                            00000000    00000002 =           2. bytes (ABS,CON)

      Value  Global                              Global Defined In Module
      -----  --------------------------------   ------------------------
ASxxxx Linker V03.00 + NoICE + sdld,  page 20.
Hexadecimal  [32-Bits]

Area                                    Addr        Size        Decimal Bytes (Attributes)
--------------------------------        ----        ----        ------- ----- ------------
_HEADER6                            00000000    00000030 =          48. bytes (ABS,CON)

      Value  Global                              Global Defined In Module
      -----  --------------------------------   ------------------------
ASxxxx Linker V03.00 + NoICE + sdld,  page 21.
Hexadecimal  [32-Bits]

Area                                    Addr        Size        Decimal Bytes (Attributes)
--------------------------------        ----        ----        ------- ----- ------------
_HEADER7                            00000000    00000006 =           6. bytes (ABS,CON)

      Value  Global                              Global Defined In Module
      -----  --------------------------------   ------------------------
ASxxxx Linker V03.00 + NoICE + sdld,  page 22.
Hexadecimal  [32-Bits]

Area                                    Addr        Size        Decimal Bytes (Attributes)
--------------------------------        ----        ----        ------- ----- ------------
_HEADER8                            00000000    00000003 =           3. bytes (ABS,CON)

      Value  Global                              Global Defined In Module
      -----  --------------------------------   ------------------------
ASxxxx Linker V03.00 + NoICE + sdld,  page 23.
Hexadecimal  [32-Bits]

Area                                    Addr        Size        Decimal Bytes (Attributes)
--------------------------------        ----        ----        ------- ----- ------------
_HEADER9                            00000000    00000001 =           1. bytes (ABS,CON)

      Value  Global                              Global Defined In Module
      -----  --------------------------------   ------------------------
ASxxxx Linker V03.00 + NoICE + sdld,  page 24.
Hexadecimal  [32-Bits]

Area                                    Addr        Size        Decimal Bytes (Attributes)
--------------------------------        ----        ----        ------- ----- ------------
_HEADERa                            00000000    00000001 =           1. bytes (ABS,CON)

      Value  Global                              Global Defined In Module
      -----  --------------------------------   ------------------------
ASxxxx Linker V03.00 + NoICE + sdld,  page 25.
Hexadecimal  [32-Bits]

Area                                    Addr        Size        Decimal Bytes (Attributes)
--------------------------------        ----        ----        ------- ----- ------------
_HEADERb                            00000000    00000001 =           1. bytes (ABS,CON)

      Value  Global                              Global Defined In Module
      -----  --------------------------------   ------------------------
ASxxxx Linker V03.00 + NoICE + sdld,  page 26.
Hexadecimal  [32-Bits]

Area                                    Addr        Size        Decimal Bytes (Attributes)
--------------------------------        ----        ----        ------- ----- ------------
_HEADERc                            00000000    00000002 =           2. bytes (ABS,CON)

      Value  Global                              Global Defined In Module
      -----  --------------------------------   ------------------------
ASxxxx Linker V03.00 + NoICE + sdld,  page 27.
Hexadecimal  [32-Bits]

Area                                    Addr        Size        Decimal Bytes (Attributes)
--------------------------------        ----        ----        ------- ----- ------------
_HEADERd                            00000000    00000001 =           1. bytes (ABS,CON)

      Value  Global                              Global Defined In Module
      -----  --------------------------------   ------------------------
ASxxxx Linker V03.00 + NoICE + sdld,  page 28.
Hexadecimal  [32-Bits]

Area                                    Addr        Size        Decimal Bytes (Attributes)
--------------------------------        ----        ----        ------- ----- ------------
_HEADERe                            00000000    00000001 =           1. bytes (ABS,CON)

      Value  Global                              Global Defined In Module
      -----  --------------------------------   ------------------------
ASxxxx Linker V03.00 + NoICE + sdld,  page 29.
Hexadecimal  [32-Bits]

Area                                    Addr        Size        Decimal Bytes (Attributes)
--------------------------------        ----        ----        ------- ----- ------------
_HEADERf                            00000000    00000002 =           2. bytes (ABS,CON)

      Value  Global                              Global Defined In Module
      -----  --------------------------------   ------------------------
ASxxxx Linker V03.00 + NoICE + sdld,  page 30.
Hexadecimal  [32-Bits]

Area                                    Addr        Size        Decimal Bytes (Attributes)
--------------------------------        ----        ----        ------- ----- ------------
_HEADER10                           00000000    00000082 =         130. bytes (ABS,CON)

      Value  Global                              Global Defined In Module
      -----  --------------------------------   ------------------------
     00000150  .reset                             Runtime
     00000150  _reset                             Runtime
     00000157  .code_start                        Runtime
     000001B7  _exit                              Runtime
     000001BB  _set_interrupts                    Runtime

ASxxxx Linker V03.00 + NoICE + sdld,  page 31.
Hexadecimal  [32-Bits]

Area                                    Addr        Size        Decimal Bytes (Attributes)
--------------------------------        ----        ----        ------- ----- ------------
_HEADER11                           00000000    00000001 =           1. bytes (ABS,CON)

      Value  Global                              Global Defined In Module
      -----  --------------------------------   ------------------------
ASxxxx Linker V03.00 + NoICE + sdld,  page 32.
Hexadecimal  [32-Bits]

Area                                    Addr        Size        Decimal Bytes (Attributes)
--------------------------------        ----        ----        ------- ----- ------------
_HOME                               00000D96    000026C8 =        9928. bytes (REL,CON)

      Value  Global                              Global Defined In Module
      -----  --------------------------------   ------------------------
     00000D96  .memset_simple                     Runtime
     00000D9F  .memcpy_simple                     Runtime
     00000DBC  .remove_VBL                        Runtime
     00000DBF  .remove_int                        Runtime
     00000DDC  .add_VBL                           Runtime
     00000DDF  .add_int                           Runtime
     00000DEA  .wait_vbl_done                     Runtime
     00000DEA  _wait_vbl_done                     Runtime
     00000DFA  .display_off                       Runtime
     00000DFA  _display_off                       Runtime
     00000E12  _remove_VBL                        Runtime
     00000E1D  _add_VBL                           Runtime
     00000E28  _actors_update                     actor
     0000119B  _SetBankedBkgData                  bankdata
     000011B7  _SetBankedSpriteData               bankdata
     000011D3  _SetBankedBkgTiles                 bankdata
     000011EF  _SetBankedWinTiles                 bankdata
     0000120B  _ReadBankedFarPtr                  bankdata
     00001232  _ReadBankedUWORD                   bankdata
     0000124E  _MemcpyBanked                      bankdata
     0000126A  _MemcpyVRAMBanked                  bankdata
     00001286  _camera_update                     camera
     000013B9  _load_animations                   data_manager
     00001418  _events_update                     events
     000014E8  _timers_update                     events
     00001570  _input_update                      input
     0000159F  .sio_ISR                           
     000015F9  .timer_ISR                         
     0000160E  _simple_LCD_isr                    interrupts
     00001659  _fullscreen_LCD_isr                interrupts
     0000168A  _VBL_isr                           interrupts
     000016C7  _isqrt                             math
     0000171D  _sine_wave                         math
     0000181D  _dir_lookup                        math
     00001825  _dir_angle_lookup                  math
     00001829  _hUGETrackerRoutine                music_manager
     00001855  _music_events_update               music_manager
     000018D7  _music_play                        music_manager
     00001957  _music_mute                        music_manager
     0000197F  _music_update                      music_manager
     000019DF  _sound_stop                        music_manager
     00001A10  _parallax_LCD_isr                  parallax
     00001A4D  _projectiles_update                projectiles
     00001E06  _projectiles_render                projectiles
     00001F79  _sample_play_isr                   sample_player
     00001FF8  _scroll_load_pending_row           scroll
     0000204B  _scroll_load_row                   scroll
     00002090  _scroll_load_col                   scroll
     000020C4  _scroll_load_pending_col           scroll
     0000211C  _set_bkg_submap                    
ASxxxx Linker V03.00 + NoICE + sdld,  page 33.
Hexadecimal  [32-Bits]

Area                                    Addr        Size        Decimal Bytes (Attributes)
--------------------------------        ----        ----        ------- ----- ------------
_HOME                               00000D96    000026C8 =        9928. bytes (REL,CON)

      Value  Global                              Global Defined In Module
      -----  --------------------------------   ------------------------
     0000215F  _set_xy_win_submap                 
     00002188  .set_xy_win_submap                 
     00002191  .set_xy_bkg_submap                 
     000021A0  .set_xy_submap                     
     000021E6  _on_SIO_receive                    sio
     00002227  _SIO_update                        sio
     0000228E  _ui_update                         ui
     0000234E  _vm_sgb_transfer                   vm_sgb
     0000239C  _vm_load_text                      vm_ui
     000025F1  _vm_beginthread                    vm
     00002716  _vm_rpn                            vm
     00002DDA  _vm_call_native                    vm
     00002DE4  _VM_STEP                           vm
     00002E4E  _script_runner_update              vm
     00002FC8  _fill_win_rect                     
     00002FDA  _rand                              
     00002FDA  _randw                             
     00003005  _initrand                          
     00003007  .initrand                          
     00003010  __mulsuchar                        mul
     0000301A  __muluschar                        mul
     00003024  __mulschar                         mul
     00003036  __muluchar                         mul
     00003042  __mulint                           mul
     00003068  _abs                               abs
     00003077  _set_win_tiles                     
     0000308B  _set_tile_data                     
     00003090  _set_bkg_data                      
     00003090  _set_win_data                      
     00003098  _set_sprite_data                   
     000030C8  _reverse                           reverse
     000030FC  ___call__banked                    far_ptr
     00003119  _to_far_ptr                        far_ptr
     00003152  _add_LCD                           
     0000315D  .add_LCD                           
     00003163  _remove_LCD                        
     0000316E  .remove_LCD                        
     00003174  .fill_rect_wtt                     
     0000317D  .fill_rect_btt                     
     000031CA  .copy_vram                         
     000031DE  _get_data                          
     000031DE  _set_data                          
     000031DE  _vmemcpy                           
     000031F1  _fill_bkg_rect                     
     00003203  .padup                             
     00003203  _waitpadup                         
     00003213  .jpad                              
     00003213  _joypad                            
     0000323B  _waitpad                           
     0000323E  .wait_pad                          
     00003245  ___sdcc_call_hl                    call_hl
ASxxxx Linker V03.00 + NoICE + sdld,  page 34.
Hexadecimal  [32-Bits]

Area                                    Addr        Size        Decimal Bytes (Attributes)
--------------------------------        ----        ----        ------- ----- ------------
_HOME                               00000D96    000026C8 =        9928. bytes (REL,CON)

      Value  Global                              Global Defined In Module
      -----  --------------------------------   ------------------------
     00003246  ___memcpy                          memcpy
     00003246  _memcpy                            memcpy
     00003289  _memset                            memset
     000032BC  ___sdcc_bcall_ehl                  
     000032CD  __divsuchar                        div
     000032DA  __modsuchar                        div
     000032E4  __divuschar                        div
     000032F6  __moduschar                        div
     00003306  __divschar                         div
     00003312  __modschar                         div
     0000331C  __divsint                          div
     0000332D  __modsint                          div
     0000333C  __divuchar                         div
     00003348  __moduchar                         div
     00003352  __divuint                          div
     00003363  __moduint                          div
     00003372  .div8                              div
     00003372  .mod8                              div
     0000337A  .div16                             div
     0000337A  .mod16                             div
     000033B0  .divu8                             div
     000033B0  .modu8                             div
     000033B3  .divu16                            div
     000033B3  .modu16                            div
     000033F4  _set_bkg_tiles                     
     00003408  .set_xy_wtt                        
     00003411  .set_xy_btt                        
     00003420  .set_xy_tt                         
ASxxxx Linker V03.00 + NoICE + sdld,  page 35.
Hexadecimal  [32-Bits]

Area                                    Addr        Size        Decimal Bytes (Attributes)
--------------------------------        ----        ----        ------- ----- ------------
_INITIALIZER                        0000345E    0000000E =          14. bytes (REL,CON)

      Value  Global                              Global Defined In Module
      -----  --------------------------------   ------------------------
ASxxxx Linker V03.00 + NoICE + sdld,  page 36.
Hexadecimal  [32-Bits]

Area                                    Addr        Size        Decimal Bytes (Attributes)
--------------------------------        ----        ----        ------- ----- ------------
_GSINIT                             0000346C    0000002D =          45. bytes (REL,CON)

      Value  Global                              Global Defined In Module
      -----  --------------------------------   ------------------------
     0000346C  gsinit                             Runtime

ASxxxx Linker V03.00 + NoICE + sdld,  page 37.
Hexadecimal  [32-Bits]

Area                                    Addr        Size        Decimal Bytes (Attributes)
--------------------------------        ----        ----        ------- ----- ------------
_GSFINAL                            00003499    00000001 =           1. bytes (REL,CON)

      Value  Global                              Global Defined In Module
      -----  --------------------------------   ------------------------
ASxxxx Linker V03.00 + NoICE + sdld,  page 38.
Hexadecimal  [32-Bits]

Area                                    Addr        Size        Decimal Bytes (Attributes)
--------------------------------        ----        ----        ------- ----- ------------
_DATA                               0000C0A0    000018FB =        6395. bytes (REL,CON)

      Value  Global                              Global Defined In Module
      -----  --------------------------------   ------------------------
     0000C0A0  __cpu                              Runtime
     0000C0A1  __is_GBA                           Runtime
     0000C0A2  .mode                              Runtime
     0000C0A3  .sys_time                          Runtime
     0000C0A3  _sys_time                          Runtime
     0000C0A5  .int_0x40                          Runtime
     0000C0B9  _actors                            actor
     0000C4D3  _actors_active_head                actor
     0000C4D5  _actors_inactive_head              actor
     0000C4D7  _screen_x                          actor
     0000C4D8  _screen_y                          actor
     0000C4D9  _invalid                           actor
     0000C4DB  _player_moving                     actor
     0000C4DC  _player_iframes                    actor
     0000C4DD  _player_collision_actor            actor
     0000C4DF  _emote_actor                       actor
     0000C4E1  _emote_timer                       actor
     0000C4E2  _allocated_hardware_sprites        actor
     0000C4EA  _camera_x                          camera
     0000C4EC  _camera_y                          camera
     0000C4EE  _camera_offset_x                   camera
     0000C4EF  _camera_offset_y                   camera
     0000C4F0  _camera_deadzone_x                 camera
     0000C4F1  _camera_deadzone_y                 camera
     0000C4F2  _camera_settings                   camera
     0000C4F6  _current_scene                     data_manager
     0000C4F9  _image_bank                        data_manager
     0000C4FA  _image_ptr                         data_manager
     0000C4FC  _image_attr_bank                   data_manager
     0000C4FD  _image_attr_ptr                    data_manager
     0000C4FF  _collision_bank                    data_manager
     0000C500  _collision_ptr                     data_manager
     0000C502  _image_tile_width                  data_manager
     0000C503  _image_tile_height                 data_manager
     0000C504  _image_width                       data_manager
     0000C506  _image_height                      data_manager
     0000C508  _sprites_len                       data_manager
     0000C509  _actors_len                        data_manager
     0000C50A  _projectiles_len                   data_manager
     0000C50B  _player_sprite_len                 data_manager
     0000C50C  _scene_type                        data_manager
     0000C50D  _scene_LCD_type                    data_manager
     0000C50E  _scene_stack                       data_manager
     0000C54E  _scene_stack_ptr                   data_manager
     0000C553  _input_events                      events
     0000C57B  _input_slots                       events
     0000C583  _timer_events                      events
     0000C597  _timer_values                      events
     0000C59F  _fade_running                      fade_manager
     0000C5A0  _fade_frames_per_step              fade_manager
ASxxxx Linker V03.00 + NoICE + sdld,  page 39.
Hexadecimal  [32-Bits]

Area                                    Addr        Size        Decimal Bytes (Attributes)
--------------------------------        ----        ----        ------- ----- ------------
_DATA                               0000C0A0    000018FB =        6395. bytes (REL,CON)

      Value  Global                              Global Defined In Module
      -----  --------------------------------   ------------------------
     0000C5A1  _fade_timer                        fade_manager
     0000C5A4  _joypads                           input
     0000C5A9  _frame_joy                         input
     0000C5AA  _last_joy                          input
     0000C5AB  _recent_joy                        input
     0000C5AC  _SIO_status                        
     0000C5AD  _link_byte_sent                    
     0000C5AE  _link_next_mode                    
     0000C5AF  _save_blob_size                    load_save
     0000C5B1  _current_track                     music_manager
     0000C5B3  _tone_frames                       music_manager
     0000C5B4  _channel_mask                      music_manager
     0000C5B5  _sound_channel                     music_manager
     0000C5B6  _current_track_bank                music_manager
     0000C5B7  _music_stopped                     music_manager
     0000C5B8  _huge_initialized                  music_manager
     0000C5B9  _routine_queue                     music_manager
     0000C5BD  _routine_queue_head                music_manager
     0000C5BE  _routine_queue_tail                music_manager
     0000C5BF  _music_events                      music_manager
     0000C5D3  _DMG_palette                       palette
     0000C5D6  _SprPalette                        palette
     0000C616  _parallax_rows                     parallax
     0000C628  _parallax_row                      parallax
     0000C62A  _projectiles                       projectiles
     0000C6E3  _projectile_defs                   projectiles
     0000C756  _projectiles_active_head           projectiles
     0000C758  _projectiles_inactive_head         projectiles
     0000C75F  _scroll_x                          scroll
     0000C761  _scroll_y                          scroll
     0000C763  _draw_scroll_x                     scroll
     0000C765  _draw_scroll_y                     scroll
     0000C767  _scroll_x_max                      scroll
     0000C769  _scroll_y_max                      scroll
     0000C76B  _scroll_offset_x                   scroll
     0000C76C  _scroll_offset_y                   scroll
     0000C76D  _pending_h_x                       scroll
     0000C76E  _pending_h_y                       scroll
     0000C76F  _pending_h_i                       scroll
     0000C770  _pending_w_x                       scroll
     0000C771  _pending_w_y                       scroll
     0000C772  _pending_w_i                       scroll
     0000C773  _current_row                       scroll
     0000C775  _new_row                           scroll
     0000C777  _current_col                       scroll
     0000C779  _new_col                           scroll
     0000C77B  .image_tile_width                  
     0000C77C  _link_operation_mode               sio
     0000C77D  _link_packet                       sio
     0000C79D  _link_packet_len                   sio
     0000C79E  _link_packet_ptr                   sio
ASxxxx Linker V03.00 + NoICE + sdld,  page 40.
Hexadecimal  [32-Bits]

Area                                    Addr        Size        Decimal Bytes (Attributes)
--------------------------------        ----        ----        ------- ----- ------------
_DATA                               0000C0A0    000018FB =        6395. bytes (REL,CON)

      Value  Global                              Global Defined In Module
      -----  --------------------------------   ------------------------
     0000C7A0  _link_packet_received              sio
     0000C7A1  _link_packet_snd_len               sio
     0000C7A2  _link_packet_snd_ptr               sio
     0000C7A4  _link_packet_sent                  sio
     0000C7A5  __is_CGB                           system
     0000C7A6  __is_SGB                           system
     0000C7A7  _triggers                          trigger
     0000C89F  _last_trigger_tx                   trigger
     0000C8A0  _last_trigger_ty                   trigger
     0000C8A1  _last_trigger                      trigger
     0000C8A2  _win_pos_x                         ui
     0000C8A3  _win_dest_pos_x                    ui
     0000C8A4  _win_pos_y                         ui
     0000C8A5  _win_dest_pos_y                    ui
     0000C8A6  _win_speed                         ui
     0000C8A7  _text_drawn                        ui
     0000C8A8  _current_text_speed                ui
     0000C8A9  _text_wait                         ui
     0000C8AA  _text_in_speed                     ui
     0000C8AB  _text_out_speed                    ui
     0000C8AC  _text_draw_speed                   ui
     0000C8AD  _text_ff_joypad                    ui
     0000C8AE  _text_ff                           ui
     0000C8AF  _text_bkg_fill                     ui
     0000C8B0  _ui_text_data                      ui
     0000C9BA  _vwf_current_mask                  ui
     0000C9BB  _vwf_current_rotate                ui
     0000C9BC  _vwf_inverse_map                   ui
     0000C9BD  _vwf_direction                     ui
     0000C9BE  _vwf_current_font_desc             ui
     0000C9C6  _vwf_current_font_bank             ui
     0000C9C7  _vwf_current_font_idx              ui
     0000C9C8  _text_render_base_addr             ui
     0000C9CA  _text_scroll_addr                  ui
     0000C9CC  _text_scroll_width                 ui
     0000C9CD  _text_scroll_height                ui
     0000C9CE  _text_scroll_fill                  ui
     0000C9D4  __itoa_fmt_len                     vm_ui_a
     0000C9D5  .itoa_fmt_buf                      vm_ui_a
     0000C9D8  _CTXS                              vm
     0000CB08  _first_ctx                         vm
     0000CB0A  _free_ctxs                         vm
     0000CB0C  _vm_lock_state                     vm
     0000CB0D  _vm_loaded_state                   vm
     0000CB0E  _vm_exception_code                 vm
     0000CB0F  _vm_exception_params_length        vm
     0000CB10  _vm_exception_params_bank          vm
     0000CB11  _vm_exception_params_offset        vm
     0000CB13  _script_memory                     vm
     0000D91B  _grounded                          platform
     0000D91C  _on_ladder                         platform
ASxxxx Linker V03.00 + NoICE + sdld,  page 41.
Hexadecimal  [32-Bits]

Area                                    Addr        Size        Decimal Bytes (Attributes)
--------------------------------        ----        ----        ------- ----- ------------
_DATA                               0000C0A0    000018FB =        6395. bytes (REL,CON)

      Value  Global                              Global Defined In Module
      -----  --------------------------------   ------------------------
     0000D91D  _pl_vel_x                          platform
     0000D91F  _pl_vel_y                          platform
     0000D921  _plat_min_vel                      platform
     0000D923  _plat_walk_vel                     platform
     0000D925  _plat_climb_vel                    platform
     0000D927  _plat_run_vel                      platform
     0000D929  _plat_walk_acc                     platform
     0000D92B  _plat_run_acc                      platform
     0000D92D  _plat_dec                          platform
     0000D92F  _plat_jump_vel                     platform
     0000D931  _plat_grav                         platform
     0000D933  _plat_hold_grav                    platform
     0000D935  _plat_max_fall_vel                 platform
     0000D937  _shooter_reached_end               shmup
     0000D938  _shooter_dest                      shmup
     0000D93A  _shooter_direction                 shmup
     0000D93B  _topdown_grid                      topdown
     0000D961  __current_ch3_wave                 hUGEDriver_obj
     0000D961  _hUGE_current_wave                 hUGEDriver_obj
     0000D982  .randhi                            
     0000D983  .randlo                            
     0000D984  ___call_banked_addr                far_ptr
     0000D984  ___call_banked_ptr                 far_ptr
     0000D986  ___call_banked_bank                far_ptr
     0000D988  .int_0x48                          
     0000D998  ___current_metasprite              Metasprites
     0000D99A  ___current_base_tile               Metasprites

ASxxxx Linker V03.00 + NoICE + sdld,  page 42.
Hexadecimal  [32-Bits]

Area                                    Addr        Size        Decimal Bytes (Attributes)
--------------------------------        ----        ----        ------- ----- ------------
_INITIALIZED                        0000D99B    0000000E =          14. bytes (REL,CON)

      Value  Global                              Global Defined In Module
      -----  --------------------------------   ------------------------
     0000D99B  _fade_style                        fade_manager
     0000D99C  _game_time                         game_time
     0000D99D  _hide_sprites                      interrupts
     0000D99E  _ISR_counter                       music_manager
     0000D99F  _play_bank                         sample_player
     0000D9A0  _play_sample                       sample_player
     0000D9A2  _play_length                       sample_player
     0000D9A4  _triggers_len                      trigger
     0000D9A5  _exchange_state                    vm_sio
     0000D9A6  _last_hit_trigger                  pointnclick
     0000D9A7  _shooter_scroll_speed              shmup
     0000D9A8  ___render_shadow_OAM               Metasprites
ASxxxx Linker V03.00 + NoICE + sdld,  page 43.
Hexadecimal  [32-Bits]

Area                                    Addr        Size        Decimal Bytes (Attributes)
--------------------------------        ----        ----        ------- ----- ------------
_HRAM12                             00000000    00000003 =           3. bytes (ABS,CON)

      Value  Global                              Global Defined In Module
      -----  --------------------------------   ------------------------
     0000FF90  __current_bank                     Runtime
     0000FF92  __shadow_OAM_base                  Runtime

ASxxxx Linker V03.00 + NoICE + sdld,  page 44.
Hexadecimal  [32-Bits]

Area                                    Addr        Size        Decimal Bytes (Attributes)
--------------------------------        ----        ----        ------- ----- ------------
_CODE_1                             00014000    000027A4 =       10148. bytes (REL,CON)

      Value  Global                              Global Defined In Module
      -----  --------------------------------   ------------------------
     00014000  _actors_init                       actor
     00014034  _emote_offsets                     actor
     00014043  _emote_metasprite                  actor
     0001404F  _player_init                       actor
     00014062  _deactivate_actor                  actor
     00014169  _activate_actor                    actor
     00014294  _activate_actors_in_row            actor
     0001438B  _activate_actors_in_col            actor
     000144DC  _actor_set_frames                  actor
     00014530  _actor_set_frame_offset            actor
     0001456D  _actor_get_frame_offset            actor
     00014580  _actor_set_anim_idle               actor
     000145AE  _actor_set_anim_moving             actor
     000145DF  _actor_set_dir                     actor
     00014644  _actor_at_tile                     actor
     00014719  _actor_in_front_of_player          actor
     00014800  _actor_overlapping_player          actor
     00014A98  _actor_overlapping_bb              actor
     00014CB6  _actors_handle_player_collision    actor
     00014D41  _check_collision_in_direction      actor
     00015480  _camera_init                       camera
     0001549E  _camera_reset                      camera
     000154AE  _remove_LCD_ISRs                   interrupts
     000154CF  _parallax_init                     parallax
     000154F3  _scroll_init                       scroll
     0001551D  _scroll_reset                      scroll
     0001553D  _scroll_update                     scroll
     00015654  _scroll_viewport                   scroll
     00015AE8  _scroll_repaint                    scroll
     00015B24  _scroll_render_rows                scroll
     00015BAC  _scroll_queue_row                  scroll
     00015BD1  _scroll_queue_col                  scroll
     00015C1D  _ui_swap_tiles                     
     00015C67  _ui_print_make_mask_lr             
     00015C83  _ui_print_make_mask_rl             
     00015C9F  _ui_init                           ui
     00015D58  _ui_load_tiles                     ui
     00015DAF  _ui_draw_frame                     ui
     00015E1E  _ui_print_reset                    ui
     00015E52  _ui_print_render                   ui
     00016046  _ui_draw_text_buffer_char          ui
     0001649A  _ui_run_menu                       ui
     000166BA  _ui_run_modal                      ui

ASxxxx Linker V03.00 + NoICE + sdld,  page 45.
Hexadecimal  [32-Bits]

Area                                    Addr        Size        Decimal Bytes (Attributes)
--------------------------------        ----        ----        ------- ----- ------------
_CODE_7                             00074000    00002F74 =       12148. bytes (REL,CON)

      Value  Global                              Global Defined In Module
      -----  --------------------------------   ------------------------
     00074000  _bootstrap_script                  
     0007400B  ___func_background_0               background_0
     0007400B  _background_0                      background_0
     00074019  ___func_background_1               background_1
     00074019  _background_1                      background_1
     00074027  ___func_background_2               background_2
     00074027  _background_2                      background_2
     00074035  ___func_background_3               background_3
     00074035  _background_3                      background_3
     00074043  ___func_background_4               background_4
     00074043  _background_4                      background_4
     00074051  ___func_background_5               background_5
     00074051  _background_5                      background_5
     0007405F  ___func_background_6               background_6
     0007405F  _background_6                      background_6
     0007406D  ___func_background_7               background_7
     0007406D  _background_7                      background_7
     0007407B  ___func_background_8               background_8
     0007407B  _background_8                      background_8
     00074089  ___func_frame_image                frame_image
     00074089  _frame_image                       frame_image
     00074119  ___func_palette_0                  palette_0
     00074119  _palette_0                         palette_0
     0007411C  ___func_palette_1                  palette_1
     0007411C  _palette_1                         palette_1
     0007411F  ___func_scene_0_actors             scene_0_actors
     0007411F  _scene_0_actors                    scene_0_actors
     0007427D  ___func_scene_0_projectiles        scene_0_projectiles
     0007427D  _scene_0_projectiles               scene_0_projectiles
     000742AB  ___func_scene_0_sprites            scene_0_sprites
     000742AB  _scene_0_sprites                   scene_0_sprites
     000742C0  ___func_scene_0_triggers           scene_0_triggers
     000742C0  _scene_0_triggers                  scene_0_triggers
     000742C8  ___func_scene_1_actors             scene_1_actors
     000742C8  _scene_1_actors                    scene_1_actors
     000742FA  ___func_scene_1_projectiles        scene_1_projectiles
     000742FA  _scene_1_projectiles               scene_1_projectiles
     00074311  ___func_scene_1_sprites            scene_1_sprites
     00074311  _scene_1_sprites                   scene_1_sprites
     00074317  ___func_scene_1                    scene_1
     00074317  _scene_1                           scene_1
     00074351  ___func_scene_2                    scene_2
     00074351  _scene_2                           scene_2
     0007438B  ___func_scene_3_actors             scene_3_actors
     0007438B  _scene_3_actors                    scene_3_actors
     000744E9  ___func_scene_3_projectiles        scene_3_projectiles
     000744E9  _scene_3_projectiles               scene_3_projectiles
     0007452E  ___func_scene_3_sprites            scene_3_sprites
     0007452E  _scene_3_sprites                   scene_3_sprites
     00074546  ___func_scene_3_triggers           scene_3_triggers
ASxxxx Linker V03.00 + NoICE + sdld,  page 46.
Hexadecimal  [32-Bits]

Area                                    Addr        Size        Decimal Bytes (Attributes)
--------------------------------        ----        ----        ------- ----- ------------
_CODE_7                             00074000    00002F74 =       12148. bytes (REL,CON)

      Value  Global                              Global Defined In Module
      -----  --------------------------------   ------------------------
     00074546  _scene_3_triggers                  scene_3_triggers
     0007454E  ___func_scene_3                    scene_3
     0007454E  _scene_3                           scene_3
     00074588  ___func_scene_4_actors             scene_4_actors
     00074588  _scene_4_actors                    scene_4_actors
     00074650  ___func_scene_4_projectiles        scene_4_projectiles
     00074650  _scene_4_projectiles               scene_4_projectiles
     0007467E  ___func_scene_4_sprites            scene_4_sprites
     0007467E  _scene_4_sprites                   scene_4_sprites
     0007468D  ___func_scene_4_triggers           scene_4_triggers
     0007468D  _scene_4_triggers                  scene_4_triggers
     0007469D  ___func_scene_4                    scene_4
     0007469D  _scene_4                           scene_4
     000746D7  ___func_scene_5_actors             scene_5_actors
     000746D7  _scene_5_actors                    scene_5_actors
     00074835  ___func_scene_5_projectiles        scene_5_projectiles
     00074835  _scene_5_projectiles               scene_5_projectiles
     0007487A  ___func_scene_5_sprites            scene_5_sprites
     0007487A  _scene_5_sprites                   scene_5_sprites
     0007488F  ___func_scene_5_triggers           scene_5_triggers
     0007488F  _scene_5_triggers                  scene_5_triggers
     00074897  ___func_scene_5                    scene_5
     00074897  _scene_5                           scene_5
     000748D1  ___func_scene_6_projectiles        scene_6_projectiles
     000748D1  _scene_6_projectiles               scene_6_projectiles
     000748FF  ___func_scene_6_sprites            scene_6_sprites
     000748FF  _scene_6_sprites                   scene_6_sprites
     00074914  ___func_scene_6_triggers           scene_6_triggers
     00074914  _scene_6_triggers                  scene_6_triggers
     0007491C  ___func_scene_6                    scene_6
     0007491C  _scene_6                           scene_6
     00074956  ___func_scene_7_actors             scene_7_actors
     00074956  _scene_7_actors                    scene_7_actors
     00074A82  ___func_scene_7_projectiles        scene_7_projectiles
     00074A82  _scene_7_projectiles               scene_7_projectiles
     00074AB0  ___func_scene_7_sprites            scene_7_sprites
     00074AB0  _scene_7_sprites                   scene_7_sprites
     00074AC8  ___func_scene_7_triggers           scene_7_triggers
     00074AC8  _scene_7_triggers                  scene_7_triggers
     00074AD0  ___func_scene_7                    scene_7
     00074AD0  _scene_7                           scene_7
     00074B0A  ___func_scene_8_projectiles        scene_8_projectiles
     00074B0A  _scene_8_projectiles               scene_8_projectiles
     00074B38  ___func_scene_8_sprites            scene_8_sprites
     00074B38  _scene_8_sprites                   scene_8_sprites
     00074B50  ___func_scene_8_triggers           scene_8_triggers
     00074B50  _scene_8_triggers                  scene_8_triggers
     00074B58  ___func_scene_8                    scene_8
     00074B58  _scene_8                           scene_8
     00074B92  _script_engine_init                
     00074BDA  _script_event_enemy_hitstun        script_event_enemy_hitstun
ASxxxx Linker V03.00 + NoICE + sdld,  page 47.
Hexadecimal  [32-Bits]

Area                                    Addr        Size        Decimal Bytes (Attributes)
--------------------------------        ----        ----        ------- ----- ------------
_CODE_7                             00074000    00002F74 =       12148. bytes (REL,CON)

      Value  Global                              Global Defined In Module
      -----  --------------------------------   ------------------------
     00074C67  _script_event_player_hitstun_0     script_event_player_hitstun_
     00074D3D  _script_event_player_hitstun       script_event_player_hitstun
     00074E13  _script_init_custominputs          script_init_custominputs
     00074E19  _script_init_player_jumpsfx        script_init_player_jumpsfx
     00074E23  _script_init_resetvariables        script_init_resetvariables
     00074E61  _script_input_0                    script_input_0
     00074E66  _script_input_2                    script_input_2
     00074E67  _script_input_3                    script_input_3
     00074F57  _script_input_4                    script_input_4
     00074F86  _script_s0_init                    script_s0_init
     00074FDA  _script_s0_p_hit1                  script_s0_p_hit1
     00075002  _script_s0a1_interact              script_s0a1_interact
     000750E0  _script_s0a4_interact              script_s0a4_interact
     00075102  _script_s0a4_update                script_s0a4_update
     0007517D  _script_s0t0_interact              script_s0t0_interact
     000751C5  _script_s1_init                    script_s1_init
     000751F6  _script_s2_init                    script_s2_init
     0007525C  _script_s3_init                    script_s3_init
     000752AF  _script_s3_p_hit1                  script_s3_p_hit1
     000752D7  _script_s3a0_interact              script_s3a0_interact
     000752F9  _script_s3a0_update                script_s3a0_update
     00075449  _script_s3a2_interact              script_s3a2_interact
     0007546B  _script_s3a2_update                script_s3a2_update
     000754E6  _script_s3a3_interact              script_s3a3_interact
     00075508  _script_s3a3_update                script_s3a3_update
     00075662  _script_s3t0_interact              script_s3t0_interact
     000756AA  _script_s4_init                    script_s4_init
     000756F8  _script_s4a2_interact              script_s4a2_interact
     0007571A  _script_s4a2_update                script_s4a2_update
     000757A0  _script_s4a3_interact              script_s4a3_interact
     000757C2  _script_s4a3_update                script_s4a3_update
     0007585C  _script_s4t0_interact              script_s4t0_interact
     0007588C  _script_s4t1_interact              script_s4t1_interact
     0007588F  _script_s5_init                    script_s5_init
     000758DD  _script_s5_p_hit1                  script_s5_p_hit1
     00075905  _script_s5a0_interact              script_s5a0_interact
     00075927  _script_s5a0_update                script_s5a0_update
     000759A5  _script_s5t0_interact              script_s5t0_interact
     000759D5  _script_s6_init                    script_s6_init
     00075A28  _script_s6_p_hit1                  script_s6_p_hit1
     00075A50  _script_s6a2_interact              script_s6a2_interact
     00075A72  _script_s6a2_update                script_s6a2_update
     00075AF8  _script_s6a3_interact              script_s6a3_interact
     00075B1A  _script_s6a3_update                script_s6a3_update
     00075B95  _script_s6a4_interact              script_s6a4_interact
     00075BB7  _script_s6a4_update                script_s6a4_update
     00075C3D  _script_s6t0_interact              script_s6t0_interact
     00075C6D  _script_s7_init                    script_s7_init
     00075CC0  _script_s7_p_hit1                  script_s7_p_hit1
     00075CE8  _script_s7a4_interact              script_s7a4_interact
     00075DC6  _script_s7a5_interact              script_s7a5_interact
ASxxxx Linker V03.00 + NoICE + sdld,  page 48.
Hexadecimal  [32-Bits]

Area                                    Addr        Size        Decimal Bytes (Attributes)
--------------------------------        ----        ----        ------- ----- ------------
_CODE_7                             00074000    00002F74 =       12148. bytes (REL,CON)

      Value  Global                              Global Defined In Module
      -----  --------------------------------   ------------------------
     00075DE8  _script_s7t0_interact              script_s7t0_interact
     00075E18  _script_s8_init                    script_s8_init
     00075E66  _script_s8_p_hit1                  script_s8_p_hit1
     00075E8E  _script_s8a2_interact              script_s8a2_interact
     00075EB0  _script_s8a2_update                script_s8a2_update
     00075F2B  _script_s8a3_interact              script_s8a3_interact
     00075F4D  _script_s8a3_update                script_s8a3_update
     00075FD3  _script_s8t0_interact              script_s8t0_interact
     00076003  _script_sfx_fireball_attack        script_sfx_fireball_attack
     00076031  _script_sfx_jump                   script_sfx_jump
     0007604D  _script_sfx_melee_attack           script_sfx_melee_attack
     00076061  ___func_spritesheet_0              spritesheet_0
     00076061  _spritesheet_0_metasprite_0        spritesheet_0
     00076069  _spritesheet_0_metasprite_1        spritesheet_0
     00076071  _spritesheet_0_metasprites         spritesheet_0
     00076075  _spritesheet_0_animations          spritesheet_0
     00076085  _spritesheet_0_animations_lookup   spritesheet_0
     00076087  _spritesheet_0                     spritesheet_0
     0007609A  ___func_spritesheet_1              spritesheet_1
     0007609A  _spritesheet_1_metasprite_0        spritesheet_1
     0007609E  _spritesheet_1_metasprite_1        spritesheet_1
     000760B2  _spritesheet_1_metasprite_2        spritesheet_1
     000760C6  _spritesheet_1_metasprites         spritesheet_1
     000760CC  _spritesheet_1_animations          spritesheet_1
     000760DC  _spritesheet_1_animations_lookup   spritesheet_1
     000760DE  _spritesheet_1                     spritesheet_1
     000760F1  ___func_spritesheet_10             spritesheet_10
     000760F1  _spritesheet_10_metasprite_0       spritesheet_10
     0007610D  _spritesheet_10_metasprites        spritesheet_10
     0007610F  _spritesheet_10_animations         spritesheet_10
     0007611F  _spritesheet_10_animations_looku   spritesheet_10
     00076121  _spritesheet_10                    spritesheet_10
     00076134  ___func_spritesheet_11             spritesheet_11
     00076134  _spritesheet_11_metasprite_0       spritesheet_11
     00076140  _spritesheet_11_metasprite_1       spritesheet_11
     0007614C  _spritesheet_11_metasprite_2       spritesheet_11
     00076158  _spritesheet_11_metasprite_3       spritesheet_11
     00076164  _spritesheet_11_metasprite_4       spritesheet_11
     00076170  _spritesheet_11_metasprite_5       spritesheet_11
     0007617C  _spritesheet_11_metasprite_6       spritesheet_11
     00076188  _spritesheet_11_metasprite_7       spritesheet_11
     00076194  _spritesheet_11_metasprites        spritesheet_11
     000761AC  _spritesheet_11_animations         spritesheet_11
     000761BC  _spritesheet_11_animations_looku   spritesheet_11
     000761BE  _spritesheet_11                    spritesheet_11
     000761D1  ___func_spritesheet_12             spritesheet_12
     000761D1  _spritesheet_12_metasprite_0       spritesheet_12
     000761D5  _spritesheet_12_metasprite_1       spritesheet_12
     000761E1  _spritesheet_12_metasprite_2       spritesheet_12
     000761ED  _spritesheet_12_metasprite_3       spritesheet_12
     000761F9  _spritesheet_12_metasprite_4       spritesheet_12
ASxxxx Linker V03.00 + NoICE + sdld,  page 49.
Hexadecimal  [32-Bits]

Area                                    Addr        Size        Decimal Bytes (Attributes)
--------------------------------        ----        ----        ------- ----- ------------
_CODE_7                             00074000    00002F74 =       12148. bytes (REL,CON)

      Value  Global                              Global Defined In Module
      -----  --------------------------------   ------------------------
     00076205  _spritesheet_12_metasprite_5       spritesheet_12
     00076211  _spritesheet_12_metasprite_6       spritesheet_12
     0007621D  _spritesheet_12_metasprite_7       spritesheet_12
     00076229  _spritesheet_12_metasprite_8       spritesheet_12
     00076235  _spritesheet_12_metasprite_9       spritesheet_12
     00076241  _spritesheet_12_metasprite_10      spritesheet_12
     0007624D  _spritesheet_12_metasprite_11      spritesheet_12
     00076259  _spritesheet_12_metasprite_12      spritesheet_12
     00076265  _spritesheet_12_metasprite_13      spritesheet_12
     00076271  _spritesheet_12_metasprite_14      spritesheet_12
     0007627D  _spritesheet_12_metasprite_15      spritesheet_12
     00076289  _spritesheet_12_metasprite_16      spritesheet_12
     00076295  _spritesheet_12_metasprites        spritesheet_12
     000762BB  _spritesheet_12_animations         spritesheet_12
     000762DB  _spritesheet_12_animations_looku   spritesheet_12
     000762DF  _spritesheet_12                    spritesheet_12
     000762F2  ___func_spritesheet_13             spritesheet_13
     000762F2  _spritesheet_13_metasprite_0       spritesheet_13
     000762F6  _spritesheet_13_metasprite_1       spritesheet_13
     00076302  _spritesheet_13_metasprite_2       spritesheet_13
     0007630E  _spritesheet_13_metasprite_3       spritesheet_13
     0007631A  _spritesheet_13_metasprite_4       spritesheet_13
     00076326  _spritesheet_13_metasprite_5       spritesheet_13
     00076332  _spritesheet_13_metasprite_6       spritesheet_13
     0007633E  _spritesheet_13_metasprite_7       spritesheet_13
     0007634A  _spritesheet_13_metasprite_8       spritesheet_13
     00076356  _spritesheet_13_metasprites        spritesheet_13
     00076368  _spritesheet_13_animations         spritesheet_13
     00076378  _spritesheet_13_animations_looku   spritesheet_13
     0007637A  _spritesheet_13                    spritesheet_13
     0007638D  ___func_spritesheet_15             spritesheet_15
     0007638D  _spritesheet_15_metasprite_0       spritesheet_15
     0007639D  _spritesheet_15_metasprites        spritesheet_15
     0007639F  _spritesheet_15_animations         spritesheet_15
     000763AF  _spritesheet_15_animations_looku   spritesheet_15
     000763B1  _spritesheet_15                    spritesheet_15
     000763C4  ___func_spritesheet_16             spritesheet_16
     000763C4  _spritesheet_16_metasprite_0       spritesheet_16
     000763D0  _spritesheet_16_metasprites        spritesheet_16
     000763D2  _spritesheet_16_animations         spritesheet_16
     000763E2  _spritesheet_16_animations_looku   spritesheet_16
     000763E4  _spritesheet_16                    spritesheet_16
     000763F7  ___func_spritesheet_17             spritesheet_17
     000763F7  _spritesheet_17_metasprite_0       spritesheet_17
     00076403  _spritesheet_17_metasprites        spritesheet_17
     00076405  _spritesheet_17_animations         spritesheet_17
     00076415  _spritesheet_17_animations_looku   spritesheet_17
     00076417  _spritesheet_17                    spritesheet_17
     0007642A  ___func_spritesheet_2              spritesheet_2
     0007642A  _spritesheet_2_metasprite_0        spritesheet_2
     0007642E  _spritesheet_2_metasprite_1        spritesheet_2
ASxxxx Linker V03.00 + NoICE + sdld,  page 50.
Hexadecimal  [32-Bits]

Area                                    Addr        Size        Decimal Bytes (Attributes)
--------------------------------        ----        ----        ------- ----- ------------
_CODE_7                             00074000    00002F74 =       12148. bytes (REL,CON)

      Value  Global                              Global Defined In Module
      -----  --------------------------------   ------------------------
     00076436  _spritesheet_2_metasprite_2        spritesheet_2
     0007643E  _spritesheet_2_metasprites         spritesheet_2
     00076444  _spritesheet_2_animations          spritesheet_2
     00076454  _spritesheet_2_animations_lookup   spritesheet_2
     00076456  _spritesheet_2                     spritesheet_2
     00076469  ___func_spritesheet_3              spritesheet_3
     00076469  _spritesheet_3_metasprite_0        spritesheet_3
     0007646D  _spritesheet_3_metasprite_1        spritesheet_3
     00076479  _spritesheet_3_metasprite_2        spritesheet_3
     00076485  _spritesheet_3_metasprite_3        spritesheet_3
     00076491  _spritesheet_3_metasprite_4        spritesheet_3
     0007649D  _spritesheet_3_metasprite_5        spritesheet_3
     000764A5  _spritesheet_3_metasprite_6        spritesheet_3
     000764AD  _spritesheet_3_metasprites         spritesheet_3
     000764BF  _spritesheet_3_animations          spritesheet_3
     000764CF  _spritesheet_3_animations_lookup   spritesheet_3
     000764D1  _spritesheet_3                     spritesheet_3
     000764E4  ___func_spritesheet_5              spritesheet_5
     000764E4  _spritesheet_5_metasprite_0        spritesheet_5
     000764F4  _spritesheet_5_metasprite_1        spritesheet_5
     00076504  _spritesheet_5_metasprite_2        spritesheet_5
     00076514  _spritesheet_5_metasprite_3        spritesheet_5
     00076524  _spritesheet_5_metasprites         spritesheet_5
     0007652C  _spritesheet_5_animations          spritesheet_5
     0007653C  _spritesheet_5_animations_lookup   spritesheet_5
     0007653E  _spritesheet_5                     spritesheet_5
     00076551  ___func_spritesheet_6              spritesheet_6
     00076551  _spritesheet_6_metasprite_0        spritesheet_6
     0007655D  _spritesheet_6_metasprite_1        spritesheet_6
     00076569  _spritesheet_6_metasprites         spritesheet_6
     0007656D  _spritesheet_6_animations          spritesheet_6
     0007657D  _spritesheet_6_animations_lookup   spritesheet_6
     0007657F  _spritesheet_6                     spritesheet_6
     00076592  ___func_spritesheet_7              spritesheet_7
     00076592  _spritesheet_7_metasprite_0        spritesheet_7
     0007659E  _spritesheet_7_metasprite_1        spritesheet_7
     000765AE  _spritesheet_7_metasprites         spritesheet_7
     000765B2  _spritesheet_7_animations          spritesheet_7
     000765D2  _spritesheet_7_animations_lookup   spritesheet_7
     000765D6  _spritesheet_7                     spritesheet_7
     000765E9  ___func_spritesheet_8              spritesheet_8
     000765E9  _spritesheet_8_metasprite_0        spritesheet_8
     000765F1  _spritesheet_8_metasprite_1        spritesheet_8
     000765F9  _spritesheet_8_metasprite_2        spritesheet_8
     00076601  _spritesheet_8_metasprite_3        spritesheet_8
     00076609  _spritesheet_8_metasprite_4        spritesheet_8
     00076611  _spritesheet_8_metasprite_5        spritesheet_8
     00076619  _spritesheet_8_metasprite_6        spritesheet_8
     00076621  _spritesheet_8_metasprite_7        spritesheet_8
     00076629  _spritesheet_8_metasprite_8        spritesheet_8
     00076631  _spritesheet_8_metasprite_9        spritesheet_8
ASxxxx Linker V03.00 + NoICE + sdld,  page 51.
Hexadecimal  [32-Bits]

Area                                    Addr        Size        Decimal Bytes (Attributes)
--------------------------------        ----        ----        ------- ----- ------------
_CODE_7                             00074000    00002F74 =       12148. bytes (REL,CON)

      Value  Global                              Global Defined In Module
      -----  --------------------------------   ------------------------
     00076639  _spritesheet_8_metasprite_10       spritesheet_8
     00076641  _spritesheet_8_metasprite_11       spritesheet_8
     00076649  _spritesheet_8_metasprites         spritesheet_8
     00076669  _spritesheet_8_animations          spritesheet_8
     00076679  _spritesheet_8_animations_lookup   spritesheet_8
     0007667B  _spritesheet_8                     spritesheet_8
     0007668E  ___func_spritesheet_9              spritesheet_9
     0007668E  _spritesheet_9_metasprite_0        spritesheet_9
     0007669E  _spritesheet_9_metasprite_1        spritesheet_9
     000766AE  _spritesheet_9_metasprite_2        spritesheet_9
     000766BE  _spritesheet_9_metasprite_3        spritesheet_9
     000766CE  _spritesheet_9_metasprites         spritesheet_9
     000766D6  _spritesheet_9_animations          spritesheet_9
     000766E6  _spritesheet_9_animations_lookup   spritesheet_9
     000766E8  _spritesheet_9                     spritesheet_9
     000766FB  _spritesheet_none_metasprite       spritesheet_none
     000766FF  _spritesheet_none_metasprites      spritesheet_none
     00076701  _spritesheet_none                  spritesheet_none
     00076714  ___func_tileset_10                 tileset_10
     00076714  _tileset_10                        tileset_10
     00076796  ___func_tileset_11                 tileset_11
     00076796  _tileset_11                        tileset_11
     000767B8  ___func_tileset_12                 tileset_12
     000767B8  _tileset_12                        tileset_12
     0007683A  ___func_tileset_13                 tileset_13
     0007683A  _tileset_13                        tileset_13
     000768DC  ___func_tileset_14                 tileset_14
     000768DC  _tileset_14                        tileset_14
     0007699E  ___func_tileset_15                 tileset_15
     0007699E  _tileset_15                        tileset_15
     00076AE0  ___func_tileset_16                 tileset_16
     00076AE0  _tileset_16                        tileset_16
     00076C42  ___func_tileset_17                 tileset_17
     00076C42  _tileset_17                        tileset_17
     00076D24  ___func_tileset_19                 tileset_19
     00076D24  _tileset_19                        tileset_19
     00076D46  ___func_tileset_20                 tileset_20
     00076D46  _tileset_20                        tileset_20
     00076D68  ___func_tileset_21                 tileset_21
     00076D68  _tileset_21                        tileset_21
     00076D8A  ___func_tileset_4                  tileset_4
     00076D8A  _tileset_4                         tileset_4
     00076DCC  ___func_tileset_5                  tileset_5
     00076DCC  _tileset_5                         tileset_5
     00076E4E  ___func_tileset_6                  tileset_6
     00076E4E  _tileset_6                         tileset_6
     00076E70  ___func_tileset_7                  tileset_7
     00076E70  _tileset_7                         tileset_7
     00076ED2  ___func_tileset_9                  tileset_9
     00076ED2  _tileset_9                         tileset_9

ASxxxx Linker V03.00 + NoICE + sdld,  page 52.
Hexadecimal  [32-Bits]

Area                                    Addr        Size        Decimal Bytes (Attributes)
--------------------------------        ----        ----        ------- ----- ------------
_CODE_4                             00044000    0000270D =        9997. bytes (REL,CON)

      Value  Global                              Global Defined In Module
      -----  --------------------------------   ------------------------
     00044000  _core_reset                        core
     00044075  _process_VM                        core
     0004431C  _core_run                          core
     000443CB  ___HandleCrash_banked              
     00044732  _load_init                         data_manager
     00044745  _spritesheet_none_far              data_manager
     00044748  _load_bkg_tileset                  data_manager
     00044855  _load_background                   data_manager
     00044914  _load_sprite                       data_manager
     00044972  _load_bounds                       data_manager
     00044992  _do_load_palette                   data_manager
     00044A12  _get_farptr_index                  data_manager
     00044AA8  _load_scene                        data_manager
     000453D7  _load_player                       data_manager
     00045423  _load_emote                        data_manager
     00045437  _events_init                       events
     00045477  _timers_init                       events
     000454B7  _DMGFadeToWhiteStep                fade_manager
     000454DA  _DMGFadeToBlackStep                fade_manager
     000454FF  _ApplyPaletteChangeDMG             fade_manager
     00045576  _fade_speeds                       fade_manager
     0004557D  _fade_init                         fade_manager
     00045596  _fade_in                           fade_manager
     000455B7  _fade_out                          fade_manager
     000455DB  _fade_update                       fade_manager
     00045625  _fade_applypalettechange           fade_manager
     0004562F  _fade_setspeed                     fade_manager
     0004563F  _fade_in_modal                     fade_manager
     0004565F  _fade_out_modal                    fade_manager
     000456EB  _save_sram_banks                   
     00045776  _erase_flash                       
     00045791  _restore_sram_bank                 flasher
     000457C0  _restore_sram                      flasher
     000457D6  _save_sram                         flasher
     000457E9  _input_init                        input
     0004580A  _data_init                         load_save
     0004584B  _signature                         load_save
     0004584F  _save_points                       load_save
     00045893  _data_slot_address                 load_save
     000458EB  _data_save                         load_save
     000459A2  _data_load                         load_save
     00045A75  _data_clear                        load_save
     00045A9A  _data_peek                         load_save
     00045B38  _sound_init                        music_manager
     00045B69  _music_init                        music_manager
     00045BA5  _music_events_poll                 music_manager
     00045BCF  _music_stop                        music_manager
     00045BE2  _wave_play                         music_manager
     00045C20  _FX_REG_SIZES                      music_manager
     00045C25  _FX_ADDR_LO                        music_manager
ASxxxx Linker V03.00 + NoICE + sdld,  page 53.
Hexadecimal  [32-Bits]

Area                                    Addr        Size        Decimal Bytes (Attributes)
--------------------------------        ----        ----        ------- ----- ------------
_CODE_4                             00044000    0000270D =        9997. bytes (REL,CON)

      Value  Global                              Global Defined In Module
      -----  --------------------------------   ------------------------
     00045C2A  _channel_masks                     music_manager
     00045C2F  _sound_play                        music_manager
     00045CB0  _palette_init                      palette
     00045CC0  _projectiles_init                  projectiles
     00045D00  _projectile_launch                 projectiles
     000460E5  _set_sample                        sample_player
     0004611E  _set_sgb_border                    sgb_border
     00046362  _SIO_init                          sio
     0004638B  _trigger_reset                     trigger
     0004639B  _trigger_interact                  trigger
     000463DB  _trigger_activate_at               trigger
     00046426  _trigger_activate_at_intersectio   trigger
     00046568  _trigger_at_intersection           trigger
     0004667D  _trigger_at_tile                   trigger

ASxxxx Linker V03.00 + NoICE + sdld,  page 54.
Hexadecimal  [32-Bits]

Area                                    Addr        Size        Decimal Bytes (Attributes)
--------------------------------        ----        ----        ------- ----- ------------
_CRASH_HEADER0                      00000000    00000005 =           5. bytes (ABS,CON)

      Value  Global                              Global Defined In Module
      -----  --------------------------------   ------------------------
ASxxxx Linker V03.00 + NoICE + sdld,  page 55.
Hexadecimal  [32-Bits]

Area                                    Addr        Size        Decimal Bytes (Attributes)
--------------------------------        ----        ----        ------- ----- ------------
_CRASH_HEADER1                      00000000    00000004 =           4. bytes (ABS,CON)

      Value  Global                              Global Defined In Module
      -----  --------------------------------   ------------------------
ASxxxx Linker V03.00 + NoICE + sdld,  page 56.
Hexadecimal  [32-Bits]

Area                                    Addr        Size        Decimal Bytes (Attributes)
--------------------------------        ----        ----        ------- ----- ------------
_CRASH_SCRATCH2                     00000000    000001CB =         459. bytes (ABS,CON)

      Value  Global                              Global Defined In Module
      -----  --------------------------------   ------------------------
ASxxxx Linker V03.00 + NoICE + sdld,  page 57.
Hexadecimal  [32-Bits]

Area                                    Addr        Size        Decimal Bytes (Attributes)
--------------------------------        ----        ----        ------- ----- ------------
_HEADER_SIO0                        00000000    00000004 =           4. bytes (ABS,CON)

      Value  Global                              Global Defined In Module
      -----  --------------------------------   ------------------------
ASxxxx Linker V03.00 + NoICE + sdld,  page 58.
Hexadecimal  [32-Bits]

Area                                    Addr        Size        Decimal Bytes (Attributes)
--------------------------------        ----        ----        ------- ----- ------------
_HEADER_TIMER0                      00000000    00000004 =           4. bytes (ABS,CON)

      Value  Global                              Global Defined In Module
      -----  --------------------------------   ------------------------
ASxxxx Linker V03.00 + NoICE + sdld,  page 59.
Hexadecimal  [32-Bits]

Area                                    Addr        Size        Decimal Bytes (Attributes)
--------------------------------        ----        ----        ------- ----- ------------
_CODE_2                             00024000    000037E2 =       14306. bytes (REL,CON)

      Value  Global                              Global Defined In Module
      -----  --------------------------------   ------------------------
     00024000  _scroll_rect                       
     0002403D  _vm_actor_move_to                  vm_actor
     000248B8  _vm_actor_activate                 vm_actor
     000248F6  _vm_actor_deactivate               vm_actor
     00024934  _vm_actor_terminate_update         vm_actor
     0002497B  _vm_actor_set_dir                  vm_actor
     000249C4  _vm_actor_set_anim                 vm_actor
     00024A51  _vm_actor_set_pos                  vm_actor
     00024ACB  _vm_actor_get_pos                  vm_actor
     00024B3A  _vm_actor_get_dir                  vm_actor
     00024BB4  _vm_actor_get_angle                vm_actor
     00024C35  _vm_actor_emote                    vm_actor
     00024CF9  _vm_actor_set_bounds               vm_actor
     00024D57  _vm_actor_set_spritesheet          vm_actor
     00024E26  _vm_actor_replace_tile             vm_actor
     00024E90  _vm_actor_set_hidden               vm_actor
     00024ED5  _vm_actor_set_anim_tick            vm_actor
     00024F13  _vm_actor_set_move_speed           vm_actor
     00024F51  _vm_actor_set_coll_enabled         vm_actor
     00024F96  _vm_actor_set_anim_frame           vm_actor
     00024FD9  _vm_actor_get_anim_frame           vm_actor
     00025021  _vm_actor_set_anim_set             vm_actor
     000250AE  _vm_actor_set_spritesheet_by_ref   vm_actor
     000251BC  _vm_camera_move_to                 vm_camera
     0002530F  _vm_camera_set_pos                 vm_camera
     00025356  _camera_shake_frames               vm_camera
     0002544E  _vm_show_sprites                   vm_gameboy
     0002545A  _vm_hide_sprites                   vm_gameboy
     00025466  _vm_input_wait                     vm_gameboy
     0002548E  _vm_context_prepare                vm_gameboy
     000254B9  _vm_input_attach                   vm_gameboy
     000254CF  _vm_input_detach                   vm_gameboy
     000254E3  _vm_input_get                      vm_gameboy
     00025517  _vm_fade_in                        vm_gameboy
     0002552D  _vm_fade_out                       vm_gameboy
     00025543  _vm_timer_prepare                  vm_gameboy
     0002556E  _vm_timer_set                      vm_gameboy
     00025589  _vm_timer_stop                     vm_gameboy
     0002559D  _vm_timer_reset                    vm_gameboy
     000255B4  _vm_get_tile_xy                    vm_gameboy
     00025660  _vm_replace_tile                   vm_gameboy
     000256EF  _vm_poll                           vm_gameboy
     000257C8  _vm_set_sprite_mode                vm_gameboy
     000257DC  _vm_replace_tile_xy                vm_gameboy
     000258BA  _vm_rumble                         vm_gameboy
     000258D2  _vm_save_clear                     vm_load_save
     000258E1  _vm_save_peek                      vm_load_save
     00025961  _vm_sin_scale                      vm_math
     00025A03  _vm_cos_scale                      vm_math
     00025AA7  _vm_music_play                     vm_music
ASxxxx Linker V03.00 + NoICE + sdld,  page 60.
Hexadecimal  [32-Bits]

Area                                    Addr        Size        Decimal Bytes (Attributes)
--------------------------------        ----        ----        ------- ----- ------------
_CODE_2                             00024000    000037E2 =       14306. bytes (REL,CON)

      Value  Global                              Global Defined In Module
      -----  --------------------------------   ------------------------
     00025ABB  _vm_music_stop                     vm_music
     00025AC3  _vm_music_mute                     vm_music
     00025AD3  _vm_music_routine                  vm_music
     00025AFA  _vm_music_setpos                   vm_music
     00025B04  _vm_sound_mastervol                vm_music
     00025B0A  _vm_sound_play                     vm_music
     00025B52  _vm_wave_play                      vm_music
     00025B6F  _vm_load_palette                   vm_palette
     00025CC8  _vm_projectile_launch              vm_projectiles
     00025D03  _vm_rtc_latch                      vm_rtc
     00025D0B  _vm_rtc_get                        vm_rtc
     00025D54  _vm_rtc_set                        vm_rtc
     00025D9D  _vm_rtc_start                      vm_rtc
     00025DB8  _vm_scene_push                     vm_scene
     00025E3D  _vm_scene_pop                      vm_scene
     00025E4B  _vm_scene_pop_all                  vm_scene
     00025E56  _vm_scene_stack_reset              vm_scene
     00025E5F  _vm_sio_set_mode                   vm_sio
     00025E72  _vm_sio_exchange                   vm_sio
     000261CB  _itoa_fmt                          vm_ui_a
     00026204  .utoa_fmt                          vm_ui_a
     000262AE  _vm_display_text                   vm_ui
     000262C4  _vm_switch_text_layer              vm_ui
     000262DE  _vm_overlay_setpos                 vm_ui
     000262F8  _vm_overlay_hide                   vm_ui
     0002630D  _vm_overlay_wait                   vm_ui
     000263B0  _vm_overlay_move_to                vm_ui
     000263F4  _vm_overlay_set_scroll             vm_ui
     00026431  _vm_overlay_clear                  vm_ui
     000264D9  _vm_overlay_show                   vm_ui
     00026527  _vm_choice                         vm_ui
     000265C6  _vm_load_frame                     vm_ui
     000265D9  _vm_load_cursor                    vm_ui
     000265EC  _vm_set_font                       vm_ui
     00026619  _vm_set_print_dir                  vm_ui
     00026622  _vm_overlay_scroll                 vm_ui
     0002665D  _vm_overlay_set_submap             vm_ui
     0002669A  _vm_call_rel                       vm
     000266EC  _vm_call                           vm
     0002672E  _vm_ret                            vm
     0002678D  _vm_call_far                       vm
     0002680A  _vm_ret_far                        vm
     00026879  _vm_push                           vm
     000268A3  _vm_pop                            vm
     000268DE  _vm_loop_rel                       vm
     0002698C  _vm_loop                           vm
     00026A19  _vm_jump_rel                       vm
     00026A3D  _vm_jump                           vm
     00026A49  _vm_systime                        vm
     00026A75  _wait_frames                       vm
     00026AEC  _vm_invoke                         vm
ASxxxx Linker V03.00 + NoICE + sdld,  page 61.
Hexadecimal  [32-Bits]

Area                                    Addr        Size        Decimal Bytes (Attributes)
--------------------------------        ----        ----        ------- ----- ------------
_CODE_2                             00024000    000037E2 =       14306. bytes (REL,CON)

      Value  Global                              Global Defined In Module
      -----  --------------------------------   ------------------------
     00026C18  _vm_join                           vm
     00026C71  _vm_terminate                      vm
     00026C9E  _vm_if                             vm
     00026DE2  _vm_if_const                       vm
     00026EF6  _vm_push_value                     vm
     00026F48  _vm_push_value_ind                 vm
     00026FBD  _vm_push_reference                 vm
     00027014  _vm_reserve                        vm
     00027041  _vm_set                            vm
     000270A2  _vm_set_const                      vm
     000270CE  _vm_get_tlocal                     vm
     0002715B  _vm_test_terminate                 vm
     00027166  _vm_idle                           vm
     00027172  _vm_get_uint8                      vm
     000271A5  _vm_get_int8                       vm
     000271D9  _vm_get_int16                      vm
     0002721B  _vm_set_uint8                      vm
     00027247  _vm_set_int8                       vm
     00027273  _vm_set_int16                      vm
     000272B2  _vm_set_const_int8                 vm
     000272BB  _vm_set_const_int16                vm
     000272C7  _vm_randomize                      vm
     000272D2  _vm_rand                           vm
     00027357  _vm_lock                           vm
     00027366  _vm_unlock                         vm
     00027379  _vm_raise                          vm
     000273BB  _vm_set_indirect                   vm
     00027436  _vm_get_indirect                   vm
     000274B1  _vm_poll_loaded                    vm
     000274E0  _vm_memset                         vm
     00027525  _vm_memcpy                         vm
     000275A5  _script_runner_init                vm
     00027661  _script_execute                    vm
     0002777C  _script_terminate                  vm
ASxxxx Linker V03.00 + NoICE + sdld,  page 62.
Hexadecimal  [32-Bits]

Area                                    Addr        Size        Decimal Bytes (Attributes)
--------------------------------        ----        ----        ------- ----- ------------
_CODE_5                             00054000    00004000 =       16384. bytes (REL,CON)

      Value  Global                              Global Defined In Module
      -----  --------------------------------   ------------------------
     00054000  ___func_cursor_image               cursor_image
     00054000  _cursor_image                      cursor_image
     00054010  ___func_font_0                     font_0
     00054DC0  _font_0                            font_0
     000557B1  _music_track_0__Data               music_track_0__Data
     00055F37  _music_track_1__Data               music_track_1__Data
     00055F4C  _script_s7a5_update                script_s7a5_update
     00055FFA  ___func_tileset_0                  tileset_0
     00055FFA  _tileset_0                         tileset_0
     0005767C  ___func_tileset_18                 tileset_18
     0005767C  _tileset_18                        tileset_18
     00057ABE  ___func_tileset_8                  tileset_8
     00057ABE  _tileset_8                         tileset_8

ASxxxx Linker V03.00 + NoICE + sdld,  page 63.
Hexadecimal  [32-Bits]

Area                                    Addr        Size        Decimal Bytes (Attributes)
--------------------------------        ----        ----        ------- ----- ------------
_CODE_6                             00064000    00004000 =       16384. bytes (REL,CON)

      Value  Global                              Global Defined In Module
      -----  --------------------------------   ------------------------
     00064000  ___func_scene_0_collisions         scene_0_collisions
     00064000  _scene_0_collisions                scene_0_collisions
     00064168  ___func_scene_0                    scene_0
     00064168  _scene_0                           scene_0
     000641A2  ___func_scene_1_collisions         scene_1_collisions
     000641A2  _scene_1_collisions                scene_1_collisions
     0006430A  ___func_scene_2_collisions         scene_2_collisions
     0006430A  _scene_2_collisions                scene_2_collisions
     00064472  ___func_scene_3_collisions         scene_3_collisions
     00064472  _scene_3_collisions                scene_3_collisions
     00064742  ___func_scene_4_collisions         scene_4_collisions
     00064742  _scene_4_collisions                scene_4_collisions
     00064A24  ___func_scene_5_collisions         scene_5_collisions
     00064A24  _scene_5_collisions                scene_5_collisions
     00064CF4  ___func_scene_6_actors             scene_6_actors
     00064CF4  _scene_6_actors                    scene_6_actors
     00064EB6  ___func_scene_6_collisions         scene_6_collisions
     00064EB6  _scene_6_collisions                scene_6_collisions
     00065212  ___func_scene_7_collisions         scene_7_collisions
     00065212  _scene_7_collisions                scene_7_collisions
     0006537A  ___func_scene_8_actors             scene_8_actors
     0006537A  _scene_8_actors                    scene_8_actors
     0006550A  ___func_scene_8_collisions         scene_8_collisions
     0006550A  _scene_8_collisions                scene_8_collisions
     000657DA  _script_event_player_hitstun_kno   script_event_player_hitstun_
     00065974  _script_input_1                    script_input_1
     00065B1A  _script_input_5                    script_input_5
     00065CC0  _script_input_6                    script_input_6
     00065E66  ___func_spritesheet_14             spritesheet_14
     00065E66  _spritesheet_14_metasprite_0       spritesheet_14
     00065E8E  _spritesheet_14_metasprite_1       spritesheet_14
     00065EB6  _spritesheet_14_metasprite_2       spritesheet_14
     00065EDE  _spritesheet_14_metasprite_3       spritesheet_14
     00065F06  _spritesheet_14_metasprite_4       spritesheet_14
     00065F2E  _spritesheet_14_metasprite_5       spritesheet_14
     00065F56  _spritesheet_14_metasprite_6       spritesheet_14
     00065F5A  _spritesheet_14_metasprite_7       spritesheet_14
     00065F82  _spritesheet_14_metasprite_8       spritesheet_14
     00065FAA  _spritesheet_14_metasprite_9       spritesheet_14
     00065FD2  _spritesheet_14_metasprite_10      spritesheet_14
     00065FFA  _spritesheet_14_metasprites        spritesheet_14
     00066018  _spritesheet_14_animations         spritesheet_14
     00066048  _spritesheet_14_animations_looku   spritesheet_14
     0006604E  _spritesheet_14                    spritesheet_14
     00066061  ___func_spritesheet_4              spritesheet_4
     00066061  _spritesheet_4_metasprite_0        spritesheet_4
     00066075  _spritesheet_4_metasprite_1        spritesheet_4
     00066089  _spritesheet_4_metasprite_2        spritesheet_4
     0006609D  _spritesheet_4_metasprite_3        spritesheet_4
     000660B1  _spritesheet_4_metasprite_4        spritesheet_4
ASxxxx Linker V03.00 + NoICE + sdld,  page 64.
Hexadecimal  [32-Bits]

Area                                    Addr        Size        Decimal Bytes (Attributes)
--------------------------------        ----        ----        ------- ----- ------------
_CODE_6                             00064000    00004000 =       16384. bytes (REL,CON)

      Value  Global                              Global Defined In Module
      -----  --------------------------------   ------------------------
     000660C5  _spritesheet_4_metasprite_5        spritesheet_4
     000660D9  _spritesheet_4_metasprite_6        spritesheet_4
     000660ED  _spritesheet_4_metasprite_7        spritesheet_4
     00066101  _spritesheet_4_metasprite_8        spritesheet_4
     00066115  _spritesheet_4_metasprite_9        spritesheet_4
     00066129  _spritesheet_4_metasprite_10       spritesheet_4
     0006612D  _spritesheet_4_metasprite_11       spritesheet_4
     00066141  _spritesheet_4_metasprite_12       spritesheet_4
     00066155  _spritesheet_4_metasprite_13       spritesheet_4
     00066169  _spritesheet_4_metasprite_14       spritesheet_4
     0006617D  _spritesheet_4_metasprite_15       spritesheet_4
     00066191  _spritesheet_4_metasprite_16       spritesheet_4
     000661A5  _spritesheet_4_metasprite_17       spritesheet_4
     000661B9  _spritesheet_4_metasprite_18       spritesheet_4
     000661CD  _spritesheet_4_metasprite_19       spritesheet_4
     000661E1  _spritesheet_4_metasprite_20       spritesheet_4
     000661F5  _spritesheet_4_metasprite_21       spritesheet_4
     00066209  _spritesheet_4_metasprite_22       spritesheet_4
     0006621D  _spritesheet_4_metasprite_23       spritesheet_4
     00066235  _spritesheet_4_metasprite_24       spritesheet_4
     0006624D  _spritesheet_4_metasprite_25       spritesheet_4
     00066265  _spritesheet_4_metasprite_26       spritesheet_4
     0006627D  _spritesheet_4_metasprite_27       spritesheet_4
     00066295  _spritesheet_4_metasprite_28       spritesheet_4
     000662AD  _spritesheet_4_metasprite_29       spritesheet_4
     000662C1  _spritesheet_4_metasprite_30       spritesheet_4
     000662D5  _spritesheet_4_metasprite_31       spritesheet_4
     000662E9  _spritesheet_4_metasprite_32       spritesheet_4
     000662FD  _spritesheet_4_metasprites         spritesheet_4
     0006635F  _spritesheet_4_animations          spritesheet_4
     000663AF  _spritesheet_4_animations_lookup   spritesheet_4
     000663B9  _spritesheet_4                     spritesheet_4
     000663CC  ___func_tilemap_0                  tilemap_0
     000663CC  _tilemap_0                         tilemap_0
     00066534  ___func_tilemap_1                  tilemap_1
     00066534  _tilemap_1                         tilemap_1
     0006669C  ___func_tilemap_2                  tilemap_2
     0006669C  _tilemap_2                         tilemap_2
     0006696C  ___func_tilemap_3                  tilemap_3
     0006696C  _tilemap_3                         tilemap_3
     00066C4E  ___func_tilemap_4                  tilemap_4
     00066C4E  _tilemap_4                         tilemap_4
     00066F1E  ___func_tilemap_5                  tilemap_5
     00066F1E  _tilemap_5                         tilemap_5
     0006727A  ___func_tilemap_6                  tilemap_6
     0006727A  _tilemap_6                         tilemap_6
     000673E2  ___func_tilemap_7                  tilemap_7
     000673E2  _tilemap_7                         tilemap_7
     000676B2  ___func_tilemap_8                  tilemap_8
     000676B2  _tilemap_8                         tilemap_8
     0006781A  ___func_tileset_1                  tileset_1
ASxxxx Linker V03.00 + NoICE + sdld,  page 65.
Hexadecimal  [32-Bits]

Area                                    Addr        Size        Decimal Bytes (Attributes)
--------------------------------        ----        ----        ------- ----- ------------
_CODE_6                             00064000    00004000 =       16384. bytes (REL,CON)

      Value  Global                              Global Defined In Module
      -----  --------------------------------   ------------------------
     0006781A  _tileset_1                         tileset_1
     00067BEC  ___func_tileset_2                  tileset_2
     00067BEC  _tileset_2                         tileset_2
     00067E8E  ___func_tileset_3                  tileset_3
     00067E8E  _tileset_3                         tileset_3

ASxxxx Linker V03.00 + NoICE + sdld,  page 66.
Hexadecimal  [32-Bits]

Area                                    Addr        Size        Decimal Bytes (Attributes)
--------------------------------        ----        ----        ------- ----- ------------
_CODE_3                             00034000    00002ADB =       10971. bytes (REL,CON)

      Value  Global                              Global Defined In Module
      -----  --------------------------------   ------------------------
     00034000  _adventure_init                    adventure
     00034015  _adventure_update                  adventure
     0003475D  _logo_init                         logo
     0003476D  _logo_update                       logo
     0003476E  _platform_init                     platform
     00034925  _platform_update                   platform
     00035956  _pointnclick_init                  pointnclick
     0003598F  _pointnclick_update                pointnclick
     00035C9B  _shmup_init                        shmup
     00035D37  _shmup_update                      shmup
     000363CD  _topdown_init                      topdown
     00036464  _topdown_update                    topdown
ASxxxx Linker V03.00 + NoICE + sdld,  page 67.
Hexadecimal  [32-Bits]

Area                                    Addr        Size        Decimal Bytes (Attributes)
--------------------------------        ----        ----        ------- ----- ------------
_HEADER_LCD0                        00000000    00000003 =           3. bytes (ABS,CON)

      Value  Global                              Global Defined In Module
      -----  --------------------------------   ------------------------
ASxxxx Linker V03.00 + NoICE + sdld,  page 68.

Files Linked                              [ module(s) ]

C:\Users\chris\AppData\Local\Temp/_gbstools/gbdk/lib/small/asxxxx/gb/crt0.o
                                          [ Runtime ]
C:/Users/chris/AppData/Local/Temp/_gbsbuild/obj/absolute.rel
                                          [ absolute ]
C:/Users/chris/AppData/Local/Temp/_gbsbuild/obj/actor.rel
                                          [ actor ]
C:/Users/chris/AppData/Local/Temp/_gbsbuild/obj/bankdata.rel
                                          [ bankdata ]
C:/Users/chris/AppData/Local/Temp/_gbsbuild/obj/bootstrap.rel
                                          [  ]
C:/Users/chris/AppData/Local/Temp/_gbsbuild/obj/camera.rel
                                          [ camera ]
C:/Users/chris/AppData/Local/Temp/_gbsbuild/obj/core.rel
                                          [ core ]
C:/Users/chris/AppData/Local/Temp/_gbsbuild/obj/crash_handler.rel
                                          [  ]
C:/Users/chris/AppData/Local/Temp/_gbsbuild/obj/data_manager.rel
                                          [ data_manager ]
C:/Users/chris/AppData/Local/Temp/_gbsbuild/obj/events.rel
                                          [ events ]
C:/Users/chris/AppData/Local/Temp/_gbsbuild/obj/fade_manager.rel
                                          [ fade_manager ]
C:/Users/chris/AppData/Local/Temp/_gbsbuild/obj/flasher_s.rel
                                          [  ]
C:/Users/chris/AppData/Local/Temp/_gbsbuild/obj/flasher.rel
                                          [ flasher ]
C:/Users/chris/AppData/Local/Temp/_gbsbuild/obj/game_time.rel
                                          [ game_time ]
C:/Users/chris/AppData/Local/Temp/_gbsbuild/obj/input.rel
                                          [ input ]
C:/Users/chris/AppData/Local/Temp/_gbsbuild/obj/interrupt_sio.rel
                                          [  ]
C:/Users/chris/AppData/Local/Temp/_gbsbuild/obj/interrupt_timer.rel
                                          [  ]
C:/Users/chris/AppData/Local/Temp/_gbsbuild/obj/interrupts.rel
                                          [ interrupts ]
C:/Users/chris/AppData/Local/Temp/_gbsbuild/obj/load_save.rel
                                          [ load_save ]
C:/Users/chris/AppData/Local/Temp/_gbsbuild/obj/math.rel
                                          [ math ]
C:/Users/chris/AppData/Local/Temp/_gbsbuild/obj/music_manager.rel
                                          [ music_manager ]
C:/Users/chris/AppData/Local/Temp/_gbsbuild/obj/oam_utils.rel
                                          [ OAM_utils ]
C:/Users/chris/AppData/Local/Temp/_gbsbuild/obj/palette.rel
                                          [ palette ]
C:/Users/chris/AppData/Local/Temp/_gbsbuild/obj/parallax.rel
                                          [ parallax ]
C:/Users/chris/AppData/Local/Temp/_gbsbuild/obj/projectiles.rel
                                          [ projectiles ]
C:/Users/chris/AppData/Local/Temp/_gbsbuild/obj/sample_player.rel
                                          [ sample_player ]
C:/Users/chris/AppData/Local/Temp/_gbsbuild/obj/scroll_a.rel
                                          [  ]
C:/Users/chris/AppData/Local/Temp/_gbsbuild/obj/scroll.rel
                                          [ scroll ]
C:/Users/chris/AppData/Local/Temp/_gbsbuild/obj/set_tile_submap.rel
                                          [  ]
C:/Users/chris/AppData/Local/Temp/_gbsbuild/obj/sgb_border.rel
                                          [ sgb_border ]
C:/Users/chris/AppData/Local/Temp/_gbsbuild/obj/sio.rel
                                          [ sio ]
C:/Users/chris/AppData/Local/Temp/_gbsbuild/obj/states_caller.rel
                                          [  ]
C:/Users/chris/AppData/Local/Temp/_gbsbuild/obj/system.rel
                                          [ system ]
C:/Users/chris/AppData/Local/Temp/_gbsbuild/obj/trigger.rel
                                          [ trigger ]
C:/Users/chris/AppData/Local/Temp/_gbsbuild/obj/ui_a.rel
                                          [  ]
C:/Users/chris/AppData/Local/Temp/_gbsbuild/obj/ui.rel
                                          [ ui ]
C:/Users/chris/AppData/Local/Temp/_gbsbuild/obj/vm_actor.rel
                                          [ vm_actor ]
C:/Users/chris/AppData/Local/Temp/_gbsbuild/obj/vm_camera.rel
                                          [ vm_camera ]
C:/Users/chris/AppData/Local/Temp/_gbsbuild/obj/vm_gameboy.rel
                                          [ vm_gameboy ]
C:/Users/chris/AppData/Local/Temp/_gbsbuild/obj/vm_instructions.rel
                                          [ vm_instructions ]
C:/Users/chris/AppData/Local/Temp/_gbsbuild/obj/vm_load_save.rel
                                          [ vm_load_save ]
C:/Users/chris/AppData/Local/Temp/_gbsbuild/obj/vm_math.rel
                                          [ vm_math ]
C:/Users/chris/AppData/Local/Temp/_gbsbuild/obj/vm_music.rel
                                          [ vm_music ]
C:/Users/chris/AppData/Local/Temp/_gbsbuild/obj/vm_palette.rel
                                          [ vm_palette ]
C:/Users/chris/AppData/Local/Temp/_gbsbuild/obj/vm_projectiles.rel
                                          [ vm_projectiles ]
C:/Users/chris/AppData/Local/Temp/_gbsbuild/obj/vm_rtc.rel
                                          [ vm_rtc ]
C:/Users/chris/AppData/Local/Temp/_gbsbuild/obj/vm_scene.rel
                                          [ vm_scene ]
C:/Users/chris/AppData/Local/Temp/_gbsbuild/obj/vm_sgb.rel
                                          [ vm_sgb ]
C:/Users/chris/AppData/Local/Temp/_gbsbuild/obj/vm_sio.rel
                                          [ vm_sio ]
C:/Users/chris/AppData/Local/Temp/_gbsbuild/obj/vm_ui_a.rel
                                          [ vm_ui_a ]
C:/Users/chris/AppData/Local/Temp/_gbsbuild/obj/vm_ui.rel
                                          [ vm_ui ]
C:/Users/chris/AppData/Local/Temp/_gbsbuild/obj/vm.rel
                                          [ vm ]
C:/Users/chris/AppData/Local/Temp/_gbsbuild/obj/background_0.rel
                                          [ background_0 ]
C:/Users/chris/AppData/Local/Temp/_gbsbuild/obj/background_1.rel
                                          [ background_1 ]
C:/Users/chris/AppData/Local/Temp/_gbsbuild/obj/background_2.rel
                                          [ background_2 ]
C:/Users/chris/AppData/Local/Temp/_gbsbuild/obj/background_3.rel
                                          [ background_3 ]
C:/Users/chris/AppData/Local/Temp/_gbsbuild/obj/background_4.rel
                                          [ background_4 ]
C:/Users/chris/AppData/Local/Temp/_gbsbuild/obj/background_5.rel
                                          [ background_5 ]
C:/Users/chris/AppData/Local/Temp/_gbsbuild/obj/background_6.rel
                                          [ background_6 ]
C:/Users/chris/AppData/Local/Temp/_gbsbuild/obj/background_7.rel
                                          [ background_7 ]
C:/Users/chris/AppData/Local/Temp/_gbsbuild/obj/background_8.rel
                                          [ background_8 ]
C:/Users/chris/AppData/Local/Temp/_gbsbuild/obj/cursor_image.rel
                                          [ cursor_image ]
C:/Users/chris/AppData/Local/Temp/_gbsbuild/obj/font_0.rel
                                          [ font_0 ]
C:/Users/chris/AppData/Local/Temp/_gbsbuild/obj/frame_image.rel
                                          [ frame_image ]
C:/Users/chris/AppData/Local/Temp/_gbsbuild/obj/music_track_0__Data.rel
                                          [ music_track_0__Data ]
C:/Users/chris/AppData/Local/Temp/_gbsbuild/obj/music_track_1__Data.rel
                                          [ music_track_1__Data ]
C:/Users/chris/AppData/Local/Temp/_gbsbuild/obj/palette_0.rel
                                          [ palette_0 ]
C:/Users/chris/AppData/Local/Temp/_gbsbuild/obj/palette_1.rel
                                          [ palette_1 ]
C:/Users/chris/AppData/Local/Temp/_gbsbuild/obj/scene_0_actors.rel
                                          [ scene_0_actors ]
C:/Users/chris/AppData/Local/Temp/_gbsbuild/obj/scene_0_collisions.rel
                                          [ scene_0_collisions ]
C:/Users/chris/AppData/Local/Temp/_gbsbuild/obj/scene_0_projectiles.rel
                                          [ scene_0_projectiles ]
C:/Users/chris/AppData/Local/Temp/_gbsbuild/obj/scene_0_sprites.rel
                                          [ scene_0_sprites ]
C:/Users/chris/AppData/Local/Temp/_gbsbuild/obj/scene_0_triggers.rel
                                          [ scene_0_triggers ]
C:/Users/chris/AppData/Local/Temp/_gbsbuild/obj/scene_0.rel
                                          [ scene_0 ]
C:/Users/chris/AppData/Local/Temp/_gbsbuild/obj/scene_1_actors.rel
                                          [ scene_1_actors ]
C:/Users/chris/AppData/Local/Temp/_gbsbuild/obj/scene_1_collisions.rel
                                          [ scene_1_collisions ]
C:/Users/chris/AppData/Local/Temp/_gbsbuild/obj/scene_1_projectiles.rel
                                          [ scene_1_projectiles ]
C:/Users/chris/AppData/Local/Temp/_gbsbuild/obj/scene_1_sprites.rel
                                          [ scene_1_sprites ]
C:/Users/chris/AppData/Local/Temp/_gbsbuild/obj/scene_1.rel
                                          [ scene_1 ]
C:/Users/chris/AppData/Local/Temp/_gbsbuild/obj/scene_2_collisions.rel
                                          [ scene_2_collisions ]
C:/Users/chris/AppData/Local/Temp/_gbsbuild/obj/scene_2.rel
                                          [ scene_2 ]
C:/Users/chris/AppData/Local/Temp/_gbsbuild/obj/scene_3_actors.rel
                                          [ scene_3_actors ]
C:/Users/chris/AppData/Local/Temp/_gbsbuild/obj/scene_3_collisions.rel
                                          [ scene_3_collisions ]
C:/Users/chris/AppData/Local/Temp/_gbsbuild/obj/scene_3_projectiles.rel
                                          [ scene_3_projectiles ]
C:/Users/chris/AppData/Local/Temp/_gbsbuild/obj/scene_3_sprites.rel
                                          [ scene_3_sprites ]
C:/Users/chris/AppData/Local/Temp/_gbsbuild/obj/scene_3_triggers.rel
                                          [ scene_3_triggers ]
C:/Users/chris/AppData/Local/Temp/_gbsbuild/obj/scene_3.rel
                                          [ scene_3 ]
C:/Users/chris/AppData/Local/Temp/_gbsbuild/obj/scene_4_actors.rel
                                          [ scene_4_actors ]
C:/Users/chris/AppData/Local/Temp/_gbsbuild/obj/scene_4_collisions.rel
                                          [ scene_4_collisions ]
C:/Users/chris/AppData/Local/Temp/_gbsbuild/obj/scene_4_projectiles.rel
                                          [ scene_4_projectiles ]
C:/Users/chris/AppData/Local/Temp/_gbsbuild/obj/scene_4_sprites.rel
                                          [ scene_4_sprites ]
C:/Users/chris/AppData/Local/Temp/_gbsbuild/obj/scene_4_triggers.rel
                                          [ scene_4_triggers ]
C:/Users/chris/AppData/Local/Temp/_gbsbuild/obj/scene_4.rel
                                          [ scene_4 ]
C:/Users/chris/AppData/Local/Temp/_gbsbuild/obj/scene_5_actors.rel
                                          [ scene_5_actors ]
C:/Users/chris/AppData/Local/Temp/_gbsbuild/obj/scene_5_collisions.rel
                                          [ scene_5_collisions ]
C:/Users/chris/AppData/Local/Temp/_gbsbuild/obj/scene_5_projectiles.rel
                                          [ scene_5_projectiles ]
C:/Users/chris/AppData/Local/Temp/_gbsbuild/obj/scene_5_sprites.rel
                                          [ scene_5_sprites ]
C:/Users/chris/AppData/Local/Temp/_gbsbuild/obj/scene_5_triggers.rel
                                          [ scene_5_triggers ]
C:/Users/chris/AppData/Local/Temp/_gbsbuild/obj/scene_5.rel
                                          [ scene_5 ]
C:/Users/chris/AppData/Local/Temp/_gbsbuild/obj/scene_6_actors.rel
                                          [ scene_6_actors ]
C:/Users/chris/AppData/Local/Temp/_gbsbuild/obj/scene_6_collisions.rel
                                          [ scene_6_collisions ]
C:/Users/chris/AppData/Local/Temp/_gbsbuild/obj/scene_6_projectiles.rel
                                          [ scene_6_projectiles ]
C:/Users/chris/AppData/Local/Temp/_gbsbuild/obj/scene_6_sprites.rel
                                          [ scene_6_sprites ]
C:/Users/chris/AppData/Local/Temp/_gbsbuild/obj/scene_6_triggers.rel
                                          [ scene_6_triggers ]
C:/Users/chris/AppData/Local/Temp/_gbsbuild/obj/scene_6.rel
                                          [ scene_6 ]
C:/Users/chris/AppData/Local/Temp/_gbsbuild/obj/scene_7_actors.rel
                                          [ scene_7_actors ]
C:/Users/chris/AppData/Local/Temp/_gbsbuild/obj/scene_7_collisions.rel
                                          [ scene_7_collisions ]
C:/Users/chris/AppData/Local/Temp/_gbsbuild/obj/scene_7_projectiles.rel
                                          [ scene_7_projectiles ]
C:/Users/chris/AppData/Local/Temp/_gbsbuild/obj/scene_7_sprites.rel
                                          [ scene_7_sprites ]
C:/Users/chris/AppData/Local/Temp/_gbsbuild/obj/scene_7_triggers.rel
                                          [ scene_7_triggers ]
C:/Users/chris/AppData/Local/Temp/_gbsbuild/obj/scene_7.rel
                                          [ scene_7 ]
C:/Users/chris/AppData/Local/Temp/_gbsbuild/obj/scene_8_actors.rel
                                          [ scene_8_actors ]
C:/Users/chris/AppData/Local/Temp/_gbsbuild/obj/scene_8_collisions.rel
                                          [ scene_8_collisions ]
C:/Users/chris/AppData/Local/Temp/_gbsbuild/obj/scene_8_projectiles.rel
                                          [ scene_8_projectiles ]
C:/Users/chris/AppData/Local/Temp/_gbsbuild/obj/scene_8_sprites.rel
                                          [ scene_8_sprites ]
C:/Users/chris/AppData/Local/Temp/_gbsbuild/obj/scene_8_triggers.rel
                                          [ scene_8_triggers ]
C:/Users/chris/AppData/Local/Temp/_gbsbuild/obj/scene_8.rel
                                          [ scene_8 ]
C:/Users/chris/AppData/Local/Temp/_gbsbuild/obj/script_engine_init.rel
                                          [  ]
C:/Users/chris/AppData/Local/Temp/_gbsbuild/obj/script_event_enemy_hitstun.rel
                                          [ script_event_enemy_hitstun ]
C:/Users/chris/AppData/Local/Temp/_gbsbuild/obj/script_event_player_hitstun_0.rel
                                          [ script_event_player_hitstun_0 ]
C:/Users/chris/AppData/Local/Temp/_gbsbuild/obj/script_event_player_hitstun_knockback.rel
                                          [ script_event_player_hitstun_knoc ]
C:/Users/chris/AppData/Local/Temp/_gbsbuild/obj/script_event_player_hitstun.rel
                                          [ script_event_player_hitstun ]
C:/Users/chris/AppData/Local/Temp/_gbsbuild/obj/script_init_custominputs.rel
                                          [ script_init_custominputs ]
C:/Users/chris/AppData/Local/Temp/_gbsbuild/obj/script_init_player_jumpsfx.rel
                                          [ script_init_player_jumpsfx ]
C:/Users/chris/AppData/Local/Temp/_gbsbuild/obj/script_init_resetvariables.rel
                                          [ script_init_resetvariables ]
C:/Users/chris/AppData/Local/Temp/_gbsbuild/obj/script_input_0.rel
                                          [ script_input_0 ]
C:/Users/chris/AppData/Local/Temp/_gbsbuild/obj/script_input_1.rel
                                          [ script_input_1 ]
C:/Users/chris/AppData/Local/Temp/_gbsbuild/obj/script_input_2.rel
                                          [ script_input_2 ]
C:/Users/chris/AppData/Local/Temp/_gbsbuild/obj/script_input_3.rel
                                          [ script_input_3 ]
C:/Users/chris/AppData/Local/Temp/_gbsbuild/obj/script_input_4.rel
                                          [ script_input_4 ]
C:/Users/chris/AppData/Local/Temp/_gbsbuild/obj/script_input_5.rel
                                          [ script_input_5 ]
C:/Users/chris/AppData/Local/Temp/_gbsbuild/obj/script_input_6.rel
                                          [ script_input_6 ]
C:/Users/chris/AppData/Local/Temp/_gbsbuild/obj/script_s0_init.rel
                                          [ script_s0_init ]
C:/Users/chris/AppData/Local/Temp/_gbsbuild/obj/script_s0_p_hit1.rel
                                          [ script_s0_p_hit1 ]
C:/Users/chris/AppData/Local/Temp/_gbsbuild/obj/script_s0a1_interact.rel
                                          [ script_s0a1_interact ]
C:/Users/chris/AppData/Local/Temp/_gbsbuild/obj/script_s0a4_interact.rel
                                          [ script_s0a4_interact ]
C:/Users/chris/AppData/Local/Temp/_gbsbuild/obj/script_s0a4_update.rel
                                          [ script_s0a4_update ]
C:/Users/chris/AppData/Local/Temp/_gbsbuild/obj/script_s0t0_interact.rel
                                          [ script_s0t0_interact ]
C:/Users/chris/AppData/Local/Temp/_gbsbuild/obj/script_s1_init.rel
                                          [ script_s1_init ]
C:/Users/chris/AppData/Local/Temp/_gbsbuild/obj/script_s2_init.rel
                                          [ script_s2_init ]
C:/Users/chris/AppData/Local/Temp/_gbsbuild/obj/script_s3_init.rel
                                          [ script_s3_init ]
C:/Users/chris/AppData/Local/Temp/_gbsbuild/obj/script_s3_p_hit1.rel
                                          [ script_s3_p_hit1 ]
C:/Users/chris/AppData/Local/Temp/_gbsbuild/obj/script_s3a0_interact.rel
                                          [ script_s3a0_interact ]
C:/Users/chris/AppData/Local/Temp/_gbsbuild/obj/script_s3a0_update.rel
                                          [ script_s3a0_update ]
C:/Users/chris/AppData/Local/Temp/_gbsbuild/obj/script_s3a2_interact.rel
                                          [ script_s3a2_interact ]
C:/Users/chris/AppData/Local/Temp/_gbsbuild/obj/script_s3a2_update.rel
                                          [ script_s3a2_update ]
C:/Users/chris/AppData/Local/Temp/_gbsbuild/obj/script_s3a3_interact.rel
                                          [ script_s3a3_interact ]
C:/Users/chris/AppData/Local/Temp/_gbsbuild/obj/script_s3a3_update.rel
                                          [ script_s3a3_update ]
C:/Users/chris/AppData/Local/Temp/_gbsbuild/obj/script_s3t0_interact.rel
                                          [ script_s3t0_interact ]
C:/Users/chris/AppData/Local/Temp/_gbsbuild/obj/script_s4_init.rel
                                          [ script_s4_init ]
C:/Users/chris/AppData/Local/Temp/_gbsbuild/obj/script_s4a2_interact.rel
                                          [ script_s4a2_interact ]
C:/Users/chris/AppData/Local/Temp/_gbsbuild/obj/script_s4a2_update.rel
                                          [ script_s4a2_update ]
C:/Users/chris/AppData/Local/Temp/_gbsbuild/obj/script_s4a3_interact.rel
                                          [ script_s4a3_interact ]
C:/Users/chris/AppData/Local/Temp/_gbsbuild/obj/script_s4a3_update.rel
                                          [ script_s4a3_update ]
C:/Users/chris/AppData/Local/Temp/_gbsbuild/obj/script_s4t0_interact.rel
                                          [ script_s4t0_interact ]
C:/Users/chris/AppData/Local/Temp/_gbsbuild/obj/script_s4t1_interact.rel
                                          [ script_s4t1_interact ]
C:/Users/chris/AppData/Local/Temp/_gbsbuild/obj/script_s5_init.rel
                                          [ script_s5_init ]
C:/Users/chris/AppData/Local/Temp/_gbsbuild/obj/script_s5_p_hit1.rel
                                          [ script_s5_p_hit1 ]
C:/Users/chris/AppData/Local/Temp/_gbsbuild/obj/script_s5a0_interact.rel
                                          [ script_s5a0_interact ]
C:/Users/chris/AppData/Local/Temp/_gbsbuild/obj/script_s5a0_update.rel
                                          [ script_s5a0_update ]
C:/Users/chris/AppData/Local/Temp/_gbsbuild/obj/script_s5t0_interact.rel
                                          [ script_s5t0_interact ]
C:/Users/chris/AppData/Local/Temp/_gbsbuild/obj/script_s6_init.rel
                                          [ script_s6_init ]
C:/Users/chris/AppData/Local/Temp/_gbsbuild/obj/script_s6_p_hit1.rel
                                          [ script_s6_p_hit1 ]
C:/Users/chris/AppData/Local/Temp/_gbsbuild/obj/script_s6a2_interact.rel
                                          [ script_s6a2_interact ]
C:/Users/chris/AppData/Local/Temp/_gbsbuild/obj/script_s6a2_update.rel
                                          [ script_s6a2_update ]
C:/Users/chris/AppData/Local/Temp/_gbsbuild/obj/script_s6a3_interact.rel
                                          [ script_s6a3_interact ]
C:/Users/chris/AppData/Local/Temp/_gbsbuild/obj/script_s6a3_update.rel
                                          [ script_s6a3_update ]
C:/Users/chris/AppData/Local/Temp/_gbsbuild/obj/script_s6a4_interact.rel
                                          [ script_s6a4_interact ]
C:/Users/chris/AppData/Local/Temp/_gbsbuild/obj/script_s6a4_update.rel
                                          [ script_s6a4_update ]
C:/Users/chris/AppData/Local/Temp/_gbsbuild/obj/script_s6t0_interact.rel
                                          [ script_s6t0_interact ]
C:/Users/chris/AppData/Local/Temp/_gbsbuild/obj/script_s7_init.rel
                                          [ script_s7_init ]
C:/Users/chris/AppData/Local/Temp/_gbsbuild/obj/script_s7_p_hit1.rel
                                          [ script_s7_p_hit1 ]
C:/Users/chris/AppData/Local/Temp/_gbsbuild/obj/script_s7a4_interact.rel
                                          [ script_s7a4_interact ]
C:/Users/chris/AppData/Local/Temp/_gbsbuild/obj/script_s7a5_interact.rel
                                          [ script_s7a5_interact ]
C:/Users/chris/AppData/Local/Temp/_gbsbuild/obj/script_s7a5_update.rel
                                          [ script_s7a5_update ]
C:/Users/chris/AppData/Local/Temp/_gbsbuild/obj/script_s7t0_interact.rel
                                          [ script_s7t0_interact ]
C:/Users/chris/AppData/Local/Temp/_gbsbuild/obj/script_s8_init.rel
                                          [ script_s8_init ]
C:/Users/chris/AppData/Local/Temp/_gbsbuild/obj/script_s8_p_hit1.rel
                                          [ script_s8_p_hit1 ]
C:/Users/chris/AppData/Local/Temp/_gbsbuild/obj/script_s8a2_interact.rel
                                          [ script_s8a2_interact ]
C:/Users/chris/AppData/Local/Temp/_gbsbuild/obj/script_s8a2_update.rel
                                          [ script_s8a2_update ]
C:/Users/chris/AppData/Local/Temp/_gbsbuild/obj/script_s8a3_interact.rel
                                          [ script_s8a3_interact ]
C:/Users/chris/AppData/Local/Temp/_gbsbuild/obj/script_s8a3_update.rel
                                          [ script_s8a3_update ]
C:/Users/chris/AppData/Local/Temp/_gbsbuild/obj/script_s8t0_interact.rel
                                          [ script_s8t0_interact ]
C:/Users/chris/AppData/Local/Temp/_gbsbuild/obj/script_sfx_fireball_attack.rel
                                          [ script_sfx_fireball_attack ]
C:/Users/chris/AppData/Local/Temp/_gbsbuild/obj/script_sfx_jump.rel
                                          [ script_sfx_jump ]
C:/Users/chris/AppData/Local/Temp/_gbsbuild/obj/script_sfx_melee_attack.rel
                                          [ script_sfx_melee_attack ]
C:/Users/chris/AppData/Local/Temp/_gbsbuild/obj/spritesheet_0.rel
                                          [ spritesheet_0 ]
C:/Users/chris/AppData/Local/Temp/_gbsbuild/obj/spritesheet_1.rel
                                          [ spritesheet_1 ]
C:/Users/chris/AppData/Local/Temp/_gbsbuild/obj/spritesheet_10.rel
                                          [ spritesheet_10 ]
C:/Users/chris/AppData/Local/Temp/_gbsbuild/obj/spritesheet_11.rel
                                          [ spritesheet_11 ]
C:/Users/chris/AppData/Local/Temp/_gbsbuild/obj/spritesheet_12.rel
                                          [ spritesheet_12 ]
C:/Users/chris/AppData/Local/Temp/_gbsbuild/obj/spritesheet_13.rel
                                          [ spritesheet_13 ]
C:/Users/chris/AppData/Local/Temp/_gbsbuild/obj/spritesheet_14.rel
                                          [ spritesheet_14 ]
C:/Users/chris/AppData/Local/Temp/_gbsbuild/obj/spritesheet_15.rel
                                          [ spritesheet_15 ]
C:/Users/chris/AppData/Local/Temp/_gbsbuild/obj/spritesheet_16.rel
                                          [ spritesheet_16 ]
C:/Users/chris/AppData/Local/Temp/_gbsbuild/obj/spritesheet_17.rel
                                          [ spritesheet_17 ]
C:/Users/chris/AppData/Local/Temp/_gbsbuild/obj/spritesheet_2.rel
                                          [ spritesheet_2 ]
C:/Users/chris/AppData/Local/Temp/_gbsbuild/obj/spritesheet_3.rel
                                          [ spritesheet_3 ]
C:/Users/chris/AppData/Local/Temp/_gbsbuild/obj/spritesheet_4.rel
                                          [ spritesheet_4 ]
C:/Users/chris/AppData/Local/Temp/_gbsbuild/obj/spritesheet_5.rel
                                          [ spritesheet_5 ]
C:/Users/chris/AppData/Local/Temp/_gbsbuild/obj/spritesheet_6.rel
                                          [ spritesheet_6 ]
C:/Users/chris/AppData/Local/Temp/_gbsbuild/obj/spritesheet_7.rel
                                          [ spritesheet_7 ]
C:/Users/chris/AppData/Local/Temp/_gbsbuild/obj/spritesheet_8.rel
                                          [ spritesheet_8 ]
C:/Users/chris/AppData/Local/Temp/_gbsbuild/obj/spritesheet_9.rel
                                          [ spritesheet_9 ]
C:/Users/chris/AppData/Local/Temp/_gbsbuild/obj/spritesheet_none.rel
                                          [ spritesheet_none ]
C:/Users/chris/AppData/Local/Temp/_gbsbuild/obj/tilemap_0.rel
                                          [ tilemap_0 ]
C:/Users/chris/AppData/Local/Temp/_gbsbuild/obj/tilemap_1.rel
                                          [ tilemap_1 ]
C:/Users/chris/AppData/Local/Temp/_gbsbuild/obj/tilemap_2.rel
                                          [ tilemap_2 ]
C:/Users/chris/AppData/Local/Temp/_gbsbuild/obj/tilemap_3.rel
                                          [ tilemap_3 ]
C:/Users/chris/AppData/Local/Temp/_gbsbuild/obj/tilemap_4.rel
                                          [ tilemap_4 ]
C:/Users/chris/AppData/Local/Temp/_gbsbuild/obj/tilemap_5.rel
                                          [ tilemap_5 ]
C:/Users/chris/AppData/Local/Temp/_gbsbuild/obj/tilemap_6.rel
                                          [ tilemap_6 ]
C:/Users/chris/AppData/Local/Temp/_gbsbuild/obj/tilemap_7.rel
                                          [ tilemap_7 ]
C:/Users/chris/AppData/Local/Temp/_gbsbuild/obj/tilemap_8.rel
                                          [ tilemap_8 ]
C:/Users/chris/AppData/Local/Temp/_gbsbuild/obj/tileset_0.rel
                                          [ tileset_0 ]
C:/Users/chris/AppData/Local/Temp/_gbsbuild/obj/tileset_1.rel
                                          [ tileset_1 ]
C:/Users/chris/AppData/Local/Temp/_gbsbuild/obj/tileset_10.rel
                                          [ tileset_10 ]
C:/Users/chris/AppData/Local/Temp/_gbsbuild/obj/tileset_11.rel
                                          [ tileset_11 ]
C:/Users/chris/AppData/Local/Temp/_gbsbuild/obj/tileset_12.rel
                                          [ tileset_12 ]
C:/Users/chris/AppData/Local/Temp/_gbsbuild/obj/tileset_13.rel
                                          [ tileset_13 ]
C:/Users/chris/AppData/Local/Temp/_gbsbuild/obj/tileset_14.rel
                                          [ tileset_14 ]
C:/Users/chris/AppData/Local/Temp/_gbsbuild/obj/tileset_15.rel
                                          [ tileset_15 ]
C:/Users/chris/AppData/Local/Temp/_gbsbuild/obj/tileset_16.rel
                                          [ tileset_16 ]
C:/Users/chris/AppData/Local/Temp/_gbsbuild/obj/tileset_17.rel
                                          [ tileset_17 ]
C:/Users/chris/AppData/Local/Temp/_gbsbuild/obj/tileset_18.rel
                                          [ tileset_18 ]
C:/Users/chris/AppData/Local/Temp/_gbsbuild/obj/tileset_19.rel
                                          [ tileset_19 ]
C:/Users/chris/AppData/Local/Temp/_gbsbuild/obj/tileset_2.rel
                                          [ tileset_2 ]
C:/Users/chris/AppData/Local/Temp/_gbsbuild/obj/tileset_20.rel
                                          [ tileset_20 ]
C:/Users/chris/AppData/Local/Temp/_gbsbuild/obj/tileset_21.rel
                                          [ tileset_21 ]
C:/Users/chris/AppData/Local/Temp/_gbsbuild/obj/tileset_3.rel
                                          [ tileset_3 ]
C:/Users/chris/AppData/Local/Temp/_gbsbuild/obj/tileset_4.rel
                                          [ tileset_4 ]
C:/Users/chris/AppData/Local/Temp/_gbsbuild/obj/tileset_5.rel
                                          [ tileset_5 ]
C:/Users/chris/AppData/Local/Temp/_gbsbuild/obj/tileset_6.rel
                                          [ tileset_6 ]
C:/Users/chris/AppData/Local/Temp/_gbsbuild/obj/tileset_7.rel
                                          [ tileset_7 ]
C:/Users/chris/AppData/Local/Temp/_gbsbuild/obj/tileset_8.rel
                                          [ tileset_8 ]
C:/Users/chris/AppData/Local/Temp/_gbsbuild/obj/tileset_9.rel
                                          [ tileset_9 ]
C:/Users/chris/AppData/Local/Temp/_gbsbuild/obj/main.rel
                                          [ main ]
C:/Users/chris/AppData/Local/Temp/_gbsbuild/obj/adventure.rel
                                          [ adventure ]
C:/Users/chris/AppData/Local/Temp/_gbsbuild/obj/logo.rel
                                          [ logo ]
C:/Users/chris/AppData/Local/Temp/_gbsbuild/obj/platform.rel
                                          [ platform ]
C:/Users/chris/AppData/Local/Temp/_gbsbuild/obj/pointnclick.rel
                                          [ pointnclick ]
C:/Users/chris/AppData/Local/Temp/_gbsbuild/obj/shmup.rel
                                          [ shmup ]
C:/Users/chris/AppData/Local/Temp/_gbsbuild/obj/states_ptrs.rel
                                          [  ]
C:/Users/chris/AppData/Local/Temp/_gbsbuild/obj/topdown.rel
                                          [ topdown ]


Libraries Linked                          [ object file ]

C:\Users\chris\AppData\Local\Temp/_gbstools/gbdk/lib/small/asxxxx/gb/gb.lib
                                          [ fill_rect_wi.o ]
C:\Users\chris\AppData\Local\Temp/_gbstools/gbdk/lib/small/asxxxx/gb/gb.lib
                                          [ sfr.o ]
lib/hUGEDriver.lib                        [ hUGEDriver.obj.o ]
C:\Users\chris\AppData\Local\Temp/_gbstools/gbdk/lib/small/asxxxx/gbz80/gbz80.lib
                                          [ rand.o ]
C:\Users\chris\AppData\Local\Temp/_gbstools/gbdk/lib/small/asxxxx/gbz80/gbz80.lib
                                          [ mul.o ]
C:\Users\chris\AppData\Local\Temp/_gbstools/gbdk/lib/small/asxxxx/gbz80/gbz80.lib
                                          [ abs.o ]
C:\Users\chris\AppData\Local\Temp/_gbstools/gbdk/lib/small/asxxxx/gb/gb.lib
                                          [ set_wi_t.o ]
C:\Users\chris\AppData\Local\Temp/_gbstools/gbdk/lib/small/asxxxx/gb/gb.lib
                                          [ set_data.o ]
C:\Users\chris\AppData\Local\Temp/_gbstools/gbdk/lib/small/asxxxx/gbz80/gbz80.lib
                                          [ reverse.o ]
C:\Users\chris\AppData\Local\Temp/_gbstools/gbdk/lib/small/asxxxx/gb/gb.lib
                                          [ far_ptr.o ]
C:\Users\chris\AppData\Local\Temp/_gbstools/gbdk/lib/small/asxxxx/gb/gb.lib
                                          [ sgb.o ]
C:\Users\chris\AppData\Local\Temp/_gbstools/gbdk/lib/small/asxxxx/gb/gb.lib
                                          [ lcd.o ]
C:\Users\chris\AppData\Local\Temp/_gbstools/gbdk/lib/small/asxxxx/gb/gb.lib
                                          [ fill_rect.o ]
C:\Users\chris\AppData\Local\Temp/_gbstools/gbdk/lib/small/asxxxx/gb/gb.lib
                                          [ cpy_data.o ]
C:\Users\chris\AppData\Local\Temp/_gbstools/gbdk/lib/small/asxxxx/gb/gb.lib
                                          [ fill_rect_bk.o ]
C:\Users\chris\AppData\Local\Temp/_gbstools/gbdk/lib/small/asxxxx/gb/gb.lib
                                          [ pad.o ]
C:\Users\chris\AppData\Local\Temp/_gbstools/gbdk/lib/small/asxxxx/gb/gb.lib
                                          [ metasprites.o ]
C:\Users\chris\AppData\Local\Temp/_gbstools/gbdk/lib/small/asxxxx/gbz80/gbz80.lib
                                          [ __sdcc_call_hl.o ]
C:\Users\chris\AppData\Local\Temp/_gbstools/gbdk/lib/small/asxxxx/gbz80/gbz80.lib
                                          [ _memcpy.o ]
C:\Users\chris\AppData\Local\Temp/_gbstools/gbdk/lib/small/asxxxx/gbz80/gbz80.lib
                                          [ _memset.o ]
C:\Users\chris\AppData\Local\Temp/_gbstools/gbdk/lib/small/asxxxx/gb/gb.lib
                                          [ ___sdcc_bcall_ehl.o ]
C:\Users\chris\AppData\Local\Temp/_gbstools/gbdk/lib/small/asxxxx/gbz80/gbz80.lib
                                          [ div.o ]
C:\Users\chris\AppData\Local\Temp/_gbstools/gbdk/lib/small/asxxxx/gb/gb.lib
                                          [ set_bk_t.o ]
C:\Users\chris\AppData\Local\Temp/_gbstools/gbdk/lib/small/asxxxx/gb/gb.lib
                                          [ set_xy_t.o ]

ASxxxx Linker V03.00 + NoICE + sdld,  page 69.

User Base Address Definitions

_DATA=0xC0A0
_CODE=0x0200
ASxxxx Linker V03.00 + NoICE + sdld,  page 70.

User Global Definitions

.STACK=0xDF00
_shadow_OAM=0xC000
.refresh_OAM=0xFF80
__start_save=4

